(dp0
S'Emperor Thaurissan'
p1
I429
sS'Doomcaller'
p2
I1
sS'Eaglehorn Bow'
p3
I2
sS"Tinker's Sharpsword Oil"
p4
I3
sS'Blood Knight'
p5
I4
sS'Explosive Shot'
p6
I5
sS'Lightning Storm'
p7
I6
sS'Selfless Hero'
p8
I7
sS'Blade Flurry'
p9
I8
sS'The Curator'
p10
I9
sS'Goblin Blastmage'
p11
I10
sS'Frostbolt'
p12
I11
sS'Murloc Warleader'
p13
I371
sS'Ethereal Conjurer'
p14
I12
sS'Ice Lance'
p15
I13
sS'Flash Heal'
p16
I14
sS'Faceless Manipulator'
p17
I15
sS'Competitive Spirit'
p18
I16
sS'Houndmaster'
p19
I17
sS'Mirror Image'
p20
I18
sS'Druid of the Saber'
p21
I19
sS'Journey Below'
p22
I20
sS'Mire Keeper'
p23
I21
sS'Gormok the Impaler'
p24
I22
sS'Water Elemental'
p25
I23
sS'Ironforge Portal'
p26
I24
sS'Armorsmith'
p27
I25
sS'Auchenai Soulpriest'
p28
I26
sS'Archmage Antonidas'
p29
I27
sS'Arcane Missiles'
p30
I28
sS'Book Wyrm'
p31
I30
sS'Ragnaros, Lightlord'
p32
I31
sS'Dark Iron Dwarf'
p33
I32
sS'Conceal'
p34
I376
sS'Shade of Naxxramas'
p35
I34
sS'Fierce Monkey'
p36
I36
sS'Argent Protector'
p37
I37
sS'Tuskarr Totemic'
p38
I419
sS'Equality'
p39
I38
sS'Twilight Elder'
p40
I72
sS'Resurrect'
p41
I40
sS'Mukla, Tyrant of the Vale'
p42
I41
sS'Novice Engineer'
p43
I42
sS'Far Sight'
p44
I43
sS'Steward of Darkshire'
p45
I44
sS'Fan of Knives'
p46
I45
sS'Counterspell'
p47
I46
sS'Twilight Drake'
p48
I379
sS'Freezing Trap'
p49
I48
sS'Feral Rage'
p50
I49
sS'Defender of Argus'
p51
I50
sS'Shieldmaiden'
p52
I51
sS'Dreadscale'
p53
I52
sS'Dark Arakkoa'
p54
I75
sS'Worgen Infiltrator'
p55
I54
sS'Jeweled Scarab'
p56
I73
sS'Molten Giant'
p57
I395
sS'Baron Geddon'
p58
I56
sS'Arathi Weaponsmith'
p59
I57
sS'Hellfire'
p60
I58
sS"Al'Akir the Windlord"
p61
I59
sS'SI:7 Agent'
p62
I60
sS'Humility'
p63
I61
sS"C'Thun"
p64
I62
sS'Redemption'
p65
I63
sS'Totemic Might'
p66
I64
sS'Force of Nature'
p67
I65
sS'Mortal Coil'
p68
I66
sS'Whirlwind'
p69
I67
sS'Blizzard'
p70
I68
sS'Master of Evolution'
p71
I230
sS'Silent Knight'
p72
I71
sS'Dark Iron Skulker'
p73
I39
sS'Doomsayer'
p74
I74
sS"Mal'Ganis"
p75
I53
sS'Onyx Bishop'
p76
I76
sS'Echoing Ooze'
p77
I77
sS'Darkshire Alchemist'
p78
I78
sS'Onyxia'
p79
I79
sS'Acolyte of Pain'
p80
I80
sS"Mark of Y'Shaarj"
p81
I81
sS'Voidwalker'
p82
I82
sS'Dr. Boom'
p83
I306
sS'Wild Growth'
p84
I84
sS"Sorcerer's Apprentice"
p85
I85
sS'Call of the Wild'
p86
I86
sS'Argent Horserider'
p87
I388
sS'Elemental Destruction'
p88
I141
sS'Cenarius'
p89
I89
sS'Chillmaw'
p90
I90
sS"Velen's Chosen"
p91
I91
sS'Cogmaster'
p92
I92
sS'Thunder Bluff Valiant'
p93
I93
sS'Frothing Berserker'
p94
I94
sS'Grim Patron'
p95
I95
sS'Entomb'
p96
I96
sS'Shield Block'
p97
I97
sS'Lock and Load'
p98
I98
sS'Bloodlust'
p99
I99
sS'Sludge Belcher'
p100
I100
sS'Fandral Staghelm'
p101
I101
sS'Shiv'
p102
I102
sS'Annoy-o-Tron'
p103
I103
sS'Acidic Swamp Ooze'
p104
I104
sS'Wrath'
p105
I106
sS'Explosive Trap'
p106
I107
sS'Barnes'
p107
I108
sS'Netherspite Historian'
p108
I109
sS'Shadow Strike'
p109
I110
sS'Bloodsail Cultist'
p110
I111
sS'Evolve'
p111
I112
sS'Nourish'
p112
I113
sS'Hooded Acolyte'
p113
I114
sS"Malchezaar's Imp"
p114
I115
sS'Eater of Secrets'
p115
I116
sS'Azure Drake'
p116
I117
sS'On the Hunt'
p117
I69
sS'Cult Sorcerer'
p118
I119
sS'Siphon Soul'
p119
I120
sS'Sir Finley Mrrgglton'
p120
I121
sS'Execute'
p121
I122
sS'Twisted Worgen'
p122
I123
sS"Alexstrasza's Champion"
p123
I124
sS'Naga Sea Witch'
p124
I125
sS'Cairne Bloodhoof'
p125
I126
sS'Fireball'
p126
I127
sS'Darkbomb'
p127
I128
sS'Deadly Shot'
p128
I130
sS'Faerie Dragon'
p129
I131
sS'Crackle'
p130
I132
sS'Menagerie Warden'
p131
I133
sS'Sap'
p132
I134
sS'Stampeding Kodo'
p133
I135
sS'Muster for Battle'
p134
I136
sS'Undercity Huckster'
p135
I137
sS'Bloodmage Thalnos'
p136
I138
sS'Battle Rage'
p137
I139
sS'Dread Corsair'
p138
I140
sS'Stalagg'
p139
I88
sS'Big Game Hunter'
p140
I142
sS'Wrathguard'
p141
I143
sS'Spirit Claws'
p142
I144
sS'Lance Carrier'
p143
I145
sS'Innervate'
p144
I146
sS'Divine Favor'
p145
I147
sS'Inner Rage'
p146
I148
sS'Blackwing Corruptor'
p147
I149
sS"King's Elekk"
p148
I150
sS'Kindly Grandmother'
p149
I151
sS'Bilefin Tidehunter'
p150
I152
sS'Flame Imp'
p151
I153
sS'Doomhammer'
p152
I154
sS'Museum Curator'
p153
I155
sS'Fiery Bat'
p154
I156
sS'Shadow Word: Death'
p155
I157
sS'Cult Apothecary'
p156
I158
sS'Ancient of Lore'
p157
I159
sS'Captain Greenskin'
p158
I258
sS'Spellslinger'
p159
I161
sS'Keeper of the Grove'
p160
I393
sS'Gadgetzan Auctioneer'
p161
I162
sS'Doomguard'
p162
I403
sS'Power of the Wild'
p163
I164
sS'Shadow Bolt'
p164
I165
sS'Ivory Knight'
p165
I166
sS'Argent Commander'
p166
I167
sS'Fire Elemental'
p167
I404
sS'Savage Roar'
p168
I169
sS'Pyroblast'
p169
I170
sS'Mad Scientist'
p170
I171
sS'Violet Teacher'
p171
I70
sS'Flame Juggler'
p172
I172
sS'Pantry Spider'
p173
I173
sS'Bloodsail Raider'
p174
I174
sS'Whirling Zap-o-matic'
p175
I175
sS'Arcanosmith'
p176
I176
sS'Cone of Cold'
p177
I177
sS'Eviscerate'
p178
I426
sS'Fist of Jaraxxus'
p179
I178
sS'Ancient of War'
p180
I179
sS'Dragon Consort'
p181
I180
sS'Lava Shock'
p182
I181
sS'Cloaked Huntress'
p183
I182
sS'Gnomish Inventor'
p184
I331
sS'Earth Shock'
p185
I184
sS"Vol'jin"
p186
I185
sS'Mirror Entity'
p187
I186
sS'Preparation'
p188
I187
sS'Beckoner of Evil'
p189
I188
sS'Ancient Watcher'
p190
I189
sS'Edwin VanCleef'
p191
I190
sS'Ironbeak Owl'
p192
I191
sS'Sea Giant'
p193
I193
sS'Twilight Guardian'
p194
I194
sS'Ancestral Knowledge'
p195
I195
sS'Solemn Vigil'
p196
I196
sS'Nightbane Templar'
p197
I197
sS'Shadowflame'
p198
I198
sS'Shieldbearer'
p199
I199
sS'Shadow Word: Pain'
p200
I200
sS'Leeroy Jenkins'
p201
I183
sS'Flamewaker'
p202
I202
sS'Wolfrider'
p203
I318
sS'Deadly Poison'
p204
I204
sS'Brawl'
p205
I205
sS'Mulch'
p206
I206
sS'Earthen Ring Farseer'
p207
I207
sS'Mountain Giant'
p208
I208
sS'Consecration'
p209
I209
sS'Gorillabot A-3'
p210
I210
sS'Old Murk-Eye'
p211
I345
sS'Antique Healbot'
p212
I211
sS'Clockwork Gnome'
p213
I212
sS'Refreshment Vendor'
p214
I213
sS'Fiery War Axe'
p215
I214
sS'Varian Wrynn'
p216
I215
sS'Mana Tide Totem'
p217
I216
sS'Maelstrom Portal'
p218
I217
sS'Soulfire'
p219
I218
sS'Lord Jaraxxus'
p220
I219
sS'Lightbomb'
p221
I220
sS'Druid of the Claw'
p222
I221
sS'Webspinner'
p223
I222
sS'Mana Wyrm'
p224
I223
sS'Demonwrath'
p225
I224
sS'Commanding Shout'
p226
I225
sS'Divine Strength'
p227
I35
sS'Ice Block'
p228
I227
sS'Shifting Shade'
p229
I228
sS'Unearthed Raptor'
p230
I229
sS'Deathlord'
p231
I231
sS"Twin Emperor Vek'lor"
p232
I232
sS'Wicked Witchdoctor'
p233
I233
sS'Fel Reaver'
p234
I234
sS'Crazed Worshipper'
p235
I235
sS'Rallying Blade'
p236
I236
sS'Thing from Below'
p237
I237
sS'Shadowcaster'
p238
I238
sS'Wisps of the Old Gods'
p239
I239
sS'Lava Burst'
p240
I240
sS'Heroic Strike'
p241
I241
sS'Harrison Jones'
p242
I242
sS'Silithid Swarmer'
p243
I243
sS'Burgle'
p244
I244
sS'Twilight Darkmender'
p245
I245
sS'Snipe'
p246
I246
sS'Bash'
p247
I247
sS'Anyfin Can Happen'
p248
I248
sS'Sylvanas Windrunner'
p249
I249
sS'Lightning Bolt'
p250
I250
sS'Voidcaller'
p251
I251
sS'Malygos'
p252
I252
sS'Excavated Evil'
p253
I253
sS"Disciple of C'Thun"
p254
I254
sS"N'Zoth, the Corruptor"
p255
I255
sS'Defias Ringleader'
p256
I256
sS'Unstable Portal'
p257
I257
sS'Babbling Book'
p258
I160
sS'Stranglethorn Tiger'
p259
I259
sS'Animal Companion'
p260
I260
sS'Cold Blood'
p261
I261
sS'Zombie Chow'
p262
I262
sS'Coldlight Oracle'
p263
I263
sS'Carrion Grub'
p264
I264
sS'Moonglade Portal'
p265
I265
sS'Arcanite Reaper'
p266
I266
sS'Quartermaster'
p267
I267
sS'Gorehowl'
p268
I338
sS'Savage Combatant'
p269
I269
sS'Reliquary Seeker'
p270
I270
sS'Corrupted Healbot'
p271
I271
sS'Dire Wolf Alpha'
p272
I272
sS'Backstab'
p273
I427
sS'Ragnaros the Firelord'
p274
I273
sS'Primal Fusion'
p275
I274
sS'Powermace'
p276
I275
sS'Bluegill Warrior'
p277
I276
sS'Hex'
p278
I277
sS'Dark Peddler'
p279
I278
sS'Wyrmrest Agent'
p280
I279
sS'Avenge'
p281
I280
sS'Savannah Highmane'
p282
I281
sS'Tundra Rhino'
p283
I282
sS'Argent Squire'
p284
I283
sS'Twilight Whelp'
p285
I284
sS"Cabalist's Tome"
p286
I285
sS'Ethereal Peddler'
p287
I286
sS'Malkorok'
p288
I287
sS'Nerubian Egg'
p289
I288
sS'Silverware Golem'
p290
I289
sS'Light of the Naaru'
p291
I290
sS'Soul of the Forest'
p292
I291
sS'Knife Juggler'
p293
I292
sS'Loatheb'
p294
I293
sS'Ysera'
p295
I294
sS'Tiny Knight of Evil'
p296
I295
sS'Piloted Shredder'
p297
I296
sS'Mounted Raptor'
p298
I297
sS'Darkshire Councilman'
p299
I298
sS'Twilight Summoner'
p300
I299
sS'Rockbiter Weapon'
p301
I300
sS'Totem Golem'
p302
I301
sS'Arcane Giant'
p303
I302
sS'Abusive Sergeant'
p304
I303
sS'Bloodhoof Brave'
p305
I304
sS'Tunnel Trogg'
p306
I201
sS'Faceless Summoner'
p307
I83
sS'Truesilver Champion'
p308
I307
sS'Jungle Moonkin'
p309
I347
sS'Keeper of Uldaman'
p310
I309
sS'Powershot'
p311
I310
sS'Power Overwhelming'
p312
I311
sS'Revenge'
p313
I312
sS'Forbidden Ritual'
p314
I313
sS'Tirion Fordring'
p315
I314
sS'Ice Barrier'
p316
I129
sS'Arcane Intellect'
p317
I316
sS'Moonfire'
p318
I317
sS"Y'Shaarj, Rage Unbound"
p319
I203
sS'Unstable Ghoul'
p320
I319
sS'Master Jouster'
p321
I320
sS'Ancient Shieldbearer'
p322
I321
sS'Brann Bronzebeard'
p323
I322
sS'Earth Elemental'
p324
I323
sS'Arcane Blast'
p325
I324
sS'Slam'
p326
I325
sS'Forgotten Torch'
p327
I192
sS'Sprint'
p328
I327
sS'Mind Control Tech'
p329
I328
sS"Death's Bite"
p330
I329
sS'Dark Cultist'
p331
I330
sS'Infested Tauren'
p332
I332
sS'Tomb Pillager'
p333
I333
sS'Alexstrasza'
p334
I334
sS'Huge Toad'
p335
I335
sS'Deathwing'
p336
I336
sS'Snowchugger'
p337
I337
sS"Medivh's Valet"
p338
I268
sS'Upgrade!'
p339
I339
sS'Eydis Darkbane'
p340
I340
sS'Flamecannon'
p341
I341
sS'Drakonid Crusher'
p342
I342
sS'Enchanted Raven'
p343
I343
sS'Secretkeeper'
p344
I344
sS'Haunted Creeper'
p345
I226
sS'Tracking'
p346
I346
sS'Hallazeal the Ascended'
p347
I308
sS'Shield Slam'
p348
I348
sS'Northshire Cleric'
p349
I349
sS"Kor'kron Elite"
p350
I350
sS'Possessed Villager'
p351
I351
sS'Feral Spirit'
p352
I352
sS'Imp Gang Boss'
p353
I353
sS'Spellbreaker'
p354
I354
sS'Druid of the Flame'
p355
I355
sS'Holy Nova'
p356
I356
sS'Young Priestess'
p357
I357
sS'Coghammer'
p358
I358
sS'Priest of the Feast'
p359
I359
sS'Spider Tank'
p360
I55
sS'Arcane Shot'
p361
I361
sS'Feugen'
p362
I362
sS'Questing Adventurer'
p363
I363
sS'Princess Huhuran'
p364
I364
sS'Sinister Strike'
p365
I365
sS'Lay on Hands'
p366
I366
sS'Shielded Minibot'
p367
I367
sS'Circle of Healing'
p368
I368
sS'Repentance'
p369
I369
sS'Kill Command'
p370
I370
sS'Faceless Shambler'
p371
I29
sS'Wild Pyromancer'
p372
I372
sS'Nerubian Prophet'
p373
I373
sS'Mysterious Challenger'
p374
I374
sS'Blessing of Might'
p375
I375
sS'Firelands Portal'
p376
I33
sS'Bog Creeper'
p377
I377
sS'Healing Wave'
p378
I378
sS"Yogg-Saron, Hope's End"
p379
I47
sS'Injured Kvaldir'
p380
I380
sS'Flametongue Totem'
p381
I381
sS'Power Word: Shield'
p382
I382
sS'Noble Sacrifice'
p383
I383
sS"Sen'jin Shieldmasta"
p384
I384
sS'Medivh, the Guardian'
p385
I385
sS'Quick Shot'
p386
I386
sS'Kobold Geomancer'
p387
I387
sS'Sunfury Protector'
p388
I87
sS'Reno Jackson'
p389
I389
sS'Cat Trick'
p390
I390
sS'Klaxxi Amber-Weaver'
p391
I391
sS'Infested Wolf'
p392
I392
sS'Chromaggus'
p393
I118
sS'Swipe'
p394
I394
sS'Blood To Ichor'
p395
I360
sS'Duplicate'
p396
I396
sS"Kel'Thuzad"
p397
I397
sS'Tinkertown Technician'
p398
I398
sS'Raven Idol'
p399
I399
sS'Flamewreathed Faceless'
p400
I400
sS"N'Zoth's First Mate"
p401
I401
sS'Cabal Shadow Priest'
p402
I402
sS'Snake Trap'
p403
I163
sS'Justicar Trueheart'
p404
I168
sS'Loot Hoarder'
p405
I405
sS'Darnassus Aspirant'
p406
I406
sS'Shadow Madness'
p407
I407
sS'Bear Trap'
p408
I408
sS'Injured Blademaster'
p409
I409
sS'Aviana'
p410
I410
sS'Darkshire Librarian'
p411
I411
sS"Hunter's Mark"
p412
I412
sS'Ravaging Ghoul'
p413
I413
sS'Glaivezooka'
p414
I414
sS'Desert Camel'
p415
I415
sS'Twisting Nether'
p416
I416
sS'Blackwing Technician'
p417
I417
sS'Shrinkmeister'
p418
I418
sS'Ancestral Spirit'
p419
I105
sS'Mechwarper'
p420
I420
sS'Swashburglar'
p421
I421
sS'Seal of Champions'
p422
I422
sS'Living Roots'
p423
I423
sS'Imp-losion'
p424
I424
sS'Southsea Captain'
p425
I425
sS'Elise Starseeker'
p426
I305
sS'Aldor Peacekeeper'
p427
I315
sS'Flamestrike'
p428
I428
sS'Grommash Hellscream'
p429
I326
sS'Southsea Deckhand'
p430
I430
sS'Blessing of Kings'
p431
I431
sS'Forbidden Healing'
p432
I432
sS'Frost Nova'
p433
I433
sS'The Black Knight'
p434
I434
sS'Dragon Egg'
p435
I435
sS'Unleash the Hounds'
p436
I436
sS'Xaril, Poisoned Mind'
p437
I437
sS'Mortal Strike'
p438
I438
sS"Skycap'n Kragg"
p439
I439
sS"C'Thun's Chosen"
p440
I440
s.