(dp0
S'Warlock'
p1
(dp2
S"Mal'Ganis"
p3
I01
sS'Void Terror'
p4
I00
sS'Drain Life'
p5
I00
sS'Shadow Bolt'
p6
I00
sS'Crystalweaver'
p7
I00
sS'Blood Imp'
p8
I00
sS'Dark Peddler'
p9
I00
sS'Felguard'
p10
I00
sS'Imp-losion'
p11
I00
sS'Hellfire'
p12
I00
sS'Mistress of Pain'
p13
I00
sS'Corruption'
p14
I00
sS'Lord Jaraxxus'
p15
I01
sS'Dark Bargain'
p16
I00
sS'Imp Gang Boss'
p17
I00
sS'Voidwalker'
p18
I00
sS'Pit Lord'
p19
I00
sS'Power Overwhelming'
p20
I00
sS'Anima Golem'
p21
I00
sS'Bane of Doom'
p22
I00
sS'Wrathguard'
p23
I00
sS'Demonheart'
p24
I00
sS"Malchezaar's Imp"
p25
I00
sS'Fist of Jaraxxus'
p26
I00
sS'Forbidden Ritual'
p27
I00
sS'Abyssal Enforcer'
p28
I00
sS'Void Crusher'
p29
I00
sS'Voidcaller'
p30
I00
sS'Kabal Trafficker'
p31
I00
sS'Bloodfury Potion'
p32
I00
sS'Succubus'
p33
I00
sS'Sense Demons'
p34
I00
sS'Seadevil Stinger'
p35
I00
sS'Felfire Potion'
p36
I00
sS'Krul the Unshackled'
p37
I01
sS'Dread Infernal'
p38
I00
sS'Curse of Rafaam'
p39
I00
sS'Unlicensed Apothecary'
p40
I00
sS'Darkshire Councilman'
p41
I00
sS'Doomguard'
p42
I00
sS'Fearsome Doomguard'
p43
I00
sS'Flame Imp'
p44
I00
sS'Wilfred Fizzlebang'
p45
I01
sS'Demonfuse'
p46
I00
sS'Floating Watcher'
p47
I00
sS'Possessed Villager'
p48
I00
sS'Darkshire Librarian'
p49
I00
sS'Dreadsteed'
p50
I00
sS'Shadowflame'
p51
I00
sS'Mortal Coil'
p52
I00
sS'Usher of Souls'
p53
I00
sS"Gul'dan"
p54
I00
sS'Darkbomb'
p55
I00
sS'Silverware Golem'
p56
I00
sS'Fel Cannon'
p57
I00
sS"Cho'gall"
p58
I01
sS'Tiny Knight of Evil'
p59
I00
sS'Kara Kazham!'
p60
I00
sS'Reliquary Seeker'
p61
I00
sS'Sacrificial Pact'
p62
I00
sS'Summoning Portal'
p63
I00
sS'DOOM!'
p64
I00
sS'Renounce Darkness'
p65
I00
sS'Demonfire'
p66
I00
sS'Demonwrath'
p67
I00
sS'Twisting Nether'
p68
I00
sS'Spreading Madness'
p69
I00
sS'Blastcrystal Potion'
p70
I00
sS'Siphon Soul'
p71
I00
sS'Soulfire'
p72
I00
ssS'Warrior'
p73
(dp74
S'Bolster'
p75
I00
sS'Blood To Ichor'
p76
I00
sS'Public Defender'
p77
I00
sS'Cruel Taskmaster'
p78
I00
sS'Screwjank Clunker'
p79
I00
sS'Battle Rage'
p80
I00
sS'Bouncing Blade'
p81
I00
sS'Ironforge Portal'
p82
I00
sS'Armorsmith'
p83
I00
sS'Execute'
p84
I00
sS'Sea Reaver'
p85
I00
sS'Crush'
p86
I00
sS'Charge'
p87
I00
sS'Ogre Warmaul'
p88
I00
sS'Arathi Weaponsmith'
p89
I00
sS'Warsong Commander'
p90
I00
sS'Shieldmaiden'
p91
I00
sS'Cursed Blade'
p92
I00
sS'Blood Warriors'
p93
I00
sS'Magni Bronzebeard'
p94
I00
sS'Gorehowl'
p95
I00
sS"N'Zoth's First Mate"
p96
I00
sS'Upgrade!'
p97
I00
sS'Brawl'
p98
I00
sS'Heroic Strike'
p99
I00
sS'Revenge'
p100
I00
sS'Obsidian Destroyer'
p101
I00
sS'Varian Wrynn'
p102
I01
sS"King's Defender"
p103
I00
sS'Malkorok'
p104
I01
sS"Fool's Bane"
p105
I00
sS'Inner Rage'
p106
I00
sS'Tentacles for Arms'
p107
I00
sS'Fierce Monkey'
p108
I00
sS'Grommash Hellscream'
p109
I01
sS'Bash'
p110
I00
sS'Bloodhoof Brave'
p111
I00
sS'Cleave'
p112
I00
sS'Arcanite Reaper'
p113
I00
sS'Fiery War Axe'
p114
I00
sS'Rampage'
p115
I00
sS'Iron Juggernaut'
p116
I01
sS'Sparring Partner'
p117
I00
sS"Alexstrasza's Champion"
p118
I00
sS'Stolen Goods'
p119
I00
sS'Shield Slam'
p120
I00
sS"Kor'kron Elite"
p121
I00
sS'Siege Engine'
p122
I00
sS'Frothing Berserker'
p123
I00
sS'Ancient Shieldbearer'
p124
I00
sS'Mortal Strike'
p125
I00
sS'I Know a Guy'
p126
I00
sS'Whirlwind'
p127
I00
sS'Shield Block'
p128
I00
sS'Brass Knuckles'
p129
I00
sS'Grimestreet Pawnbroker'
p130
I00
sS'Warbot'
p131
I00
sS'Ravaging Ghoul'
p132
I00
sS'Sleep with the Fishes'
p133
I00
sS'Protect the King!'
p134
I00
sS'Axe Flinger'
p135
I00
sS'Garrosh Hellscream'
p136
I00
sS'Alley Armorsmith'
p137
I00
sS'Magnataur Alpha'
p138
I00
sS'Bloodsail Cultist'
p139
I00
sS'Slam'
p140
I00
sS'Orgrimmar Aspirant'
p141
I00
sS'Hobart Grapplehammer'
p142
I01
sS'Commanding Shout'
p143
I00
sS'Grimy Gadgeteer'
p144
I00
sS"Death's Bite"
p145
I00
ssS'Priest'
p146
(dp147
S'Dark Cultist'
p148
I00
sS'Shifting Shade'
p149
I00
sS'Lightspawn'
p150
I00
sS'Confessor Paletress'
p151
I01
sS'Shadow Madness'
p152
I00
sS'Onyx Bishop'
p153
I00
sS'Spawn of Shadows'
p154
I00
sS"Vol'jin"
p155
I01
sS'Auchenai Soulpriest'
p156
I00
sS'Darkshire Alchemist'
p157
I00
sS'Drakonid Operative'
p158
I00
sS'Embrace the Shadow'
p159
I00
sS'Inner Fire'
p160
I00
sS'Shadow Word: Pain'
p161
I00
sS'Anduin Wrynn'
p162
I00
sS'Greater Healing Potion'
p163
I00
sS'Twilight Whelp'
p164
I00
sS'Raza the Chained'
p165
I01
sS'Upgraded Repair Bot'
p166
I00
sS'Circle of Healing'
p167
I00
sS'Temple Enforcer'
p168
I00
sS'Herald Volazj'
p169
I01
sS'Mind Control'
p170
I00
sS'Entomb'
p171
I00
sS'Hooded Acolyte'
p172
I00
sS'Kabal Songstealer'
p173
I00
sS'Holy Champion'
p174
I00
sS'Shadow Word: Horror'
p175
I00
sS'Twilight Darkmender'
p176
I00
sS'Dragonfire Potion'
p177
I00
sS'Forbidden Shaping'
p178
I00
sS'Holy Nova'
p179
I00
sS'Tyrande Whisperwind'
p180
I00
sS'Kabal Talonpriest'
p181
I00
sS'Convert'
p182
I00
sS'Light of the Naaru'
p183
I00
sS'Power Word: Tentacles'
p184
I00
sS'Mass Dispel'
p185
I00
sS"Velen's Chosen"
p186
I00
sS'Purify'
p187
I00
sS'Shadowform'
p188
I00
sS'Lightwell'
p189
I00
sS'Museum Curator'
p190
I00
sS'Northshire Cleric'
p191
I00
sS'Shadow Word: Death'
p192
I00
sS'Flash Heal'
p193
I00
sS'Mind Vision'
p194
I00
sS'Thoughtsteal'
p195
I00
sS'Excavated Evil'
p196
I00
sS'Silence'
p197
I00
sS'Lightbomb'
p198
I00
sS'Pint-Size Potion'
p199
I00
sS'Resurrect'
p200
I00
sS'Power Word: Shield'
p201
I00
sS'Shrinkmeister'
p202
I00
sS'Mana Geode'
p203
I00
sS'Mind Blast'
p204
I00
sS'Cabal Shadow Priest'
p205
I00
sS'Confuse'
p206
I00
sS'Shadowbomber'
p207
I00
sS'Mindgames'
p208
I00
sS'Shadowboxer'
p209
I00
sS'Potion of Madness'
p210
I00
sS'Divine Spirit'
p211
I00
sS'Priest of the Feast'
p212
I00
sS'Holy Smite'
p213
I00
sS'Wyrmrest Agent'
p214
I00
sS'Holy Fire'
p215
I00
sS'Power Word: Glory'
p216
I00
sS'Shadowfiend'
p217
I00
sS'Prophet Velen'
p218
I01
ssS'Hunter'
p219
(dp220
S'Cat Trick'
p221
I00
sS'King of Beasts'
p222
I00
sS'Snake Trap'
p223
I00
sS'Starving Buzzard'
p224
I00
sS'Arcane Shot'
p225
I00
sS'King Krush'
p226
I01
sS'Explosive Trap'
p227
I00
sS'Infested Wolf'
p228
I00
sS'On the Hunt'
p229
I00
sS"Explorer's Hat"
p230
I00
sS'Acidmaw'
p231
I01
sS'Multi-Shot'
p232
I00
sS'Cloaked Huntress'
p233
I00
sS'Alleria Windrunner'
p234
I00
sS'Desert Camel'
p235
I00
sS'Explosive Shot'
p236
I00
sS'Rat Pack'
p237
I00
sS'Piranha Launcher'
p238
I00
sS'Savannah Highmane'
p239
I00
sS'Tundra Rhino'
p240
I00
sS'Core Rager'
p241
I00
sS'Animal Companion'
p242
I00
sS'Stablemaster'
p243
I00
sS'Ram Wrangler'
p244
I00
sS'Powershot'
p245
I00
sS"Smuggler's Crate"
p246
I00
sS'Forlorn Stalker'
p247
I00
sS'Kill Command'
p248
I00
sS'Misdirection'
p249
I00
sS'Ball of Spiders'
p250
I00
sS'Giant Sand Worm'
p251
I00
sS'Shaky Zipgunner'
p252
I00
sS'Metaltooth Leaper'
p253
I00
sS'Snipe'
p254
I00
sS'Feign Death'
p255
I00
sS'Houndmaster'
p256
I00
sS'Brave Archer'
p257
I00
sS'Bear Trap'
p258
I00
sS'Tracking'
p259
I00
sS'Rexxar'
p260
I00
sS"King's Elekk"
p261
I00
sS'Knuckles'
p262
I01
sS"Gladiator's Longbow"
p263
I00
sS'Flare'
p264
I00
sS'Kindly Grandmother'
p265
I00
sS'Timber Wolf'
p266
I00
sS'Steamwheedle Sniper'
p267
I00
sS'Trogg Beastrager'
p268
I00
sS'Fiery Bat'
p269
I00
sS'Dart Trap'
p270
I00
sS'Princess Huhuran'
p271
I01
sS'Dispatch Kodo'
p272
I00
sS"Hunter's Mark"
p273
I00
sS'Carrion Grub'
p274
I00
sS'Unleash the Hounds'
p275
I00
sS'Lock and Load'
p276
I00
sS'Deadly Shot'
p277
I00
sS'Scavenging Hyena'
p278
I00
sS"Gahz'rilla"
p279
I01
sS'Freezing Trap'
p280
I00
sS'Alleycat'
p281
I00
sS'Glaivezooka'
p282
I00
sS'Quick Shot'
p283
I00
sS'Hidden Cache'
p284
I00
sS'Webspinner'
p285
I00
sS'Eaglehorn Bow'
p286
I00
sS'Call Pet'
p287
I00
sS'Call of the Wild'
p288
I00
sS'Infest'
p289
I00
sS'Dreadscale'
p290
I01
sS'Bestial Wrath'
p291
I00
sS'Cobra Shot'
p292
I00
ssS'Druid'
p293
(dp294
S'Dark Arakkoa'
p295
I00
sS'Grove Tender'
p296
I00
sS'Power of the Wild'
p297
I00
sS'Wrath'
p298
I00
sS'Malfurion Stormrage'
p299
I00
sS'Dark Wispers'
p300
I00
sS'Bite'
p301
I00
sS'Swipe'
p302
I00
sS'Living Roots'
p303
I00
sS'Savage Roar'
p304
I00
sS'Druid of the Fang'
p305
I00
sS'Recycle'
p306
I00
sS'Klaxxi Amber-Weaver'
p307
I00
sS'Kun the Forgotten King'
p308
I01
sS'Ironbark Protector'
p309
I00
sS'Ancient of Lore'
p310
I00
sS'Raven Idol'
p311
I00
sS'Jade Blossom'
p312
I00
sS'Pilfered Power'
p313
I00
sS'Jade Idol'
p314
I00
sS'Nourish'
p315
I00
sS'Forbidden Ancient'
p316
I00
sS'Wisps of the Old Gods'
p317
I00
sS'Mark of Nature'
p318
I00
sS"Mark of Y'Shaarj"
p319
I00
sS'Mulch'
p320
I00
sS'Innervate'
p321
I00
sS'Mech-Bear-Cat'
p322
I00
sS'Enchanted Raven'
p323
I00
sS'Astral Communion'
p324
I00
sS'Wild Growth'
p325
I00
sS'Darnassus Aspirant'
p326
I00
sS'Addled Grizzly'
p327
I00
sS'Menagerie Warden'
p328
I00
sS'Keeper of the Grove'
p329
I00
sS'Moonfire'
p330
I00
sS'Moonglade Portal'
p331
I00
sS'Poison Seeds'
p332
I00
sS'Cenarius'
p333
I01
sS'Savagery'
p334
I00
sS'Jungle Moonkin'
p335
I00
sS'Anodized Robo Cub'
p336
I00
sS'Soul of the Forest'
p337
I00
sS'Ancient of War'
p338
I00
sS'Force of Nature'
p339
I00
sS'Aviana'
p340
I01
sS'Tree of Life'
p341
I00
sS'Claw'
p342
I00
sS'Healing Touch'
p343
I00
sS'Knight of the Wild'
p344
I00
sS'Jade Behemoth'
p345
I00
sS'Savage Combatant'
p346
I00
sS'Naturalize'
p347
I00
sS'Starfall'
p348
I00
sS'Starfire'
p349
I00
sS'Druid of the Flame'
p350
I00
sS'Feral Rage'
p351
I00
sS'Druid of the Claw'
p352
I00
sS'Mark of the Lotus'
p353
I00
sS'Lunar Visions'
p354
I00
sS'Mark of the Wild'
p355
I00
sS'Volcanic Lumberer'
p356
I00
sS'Mounted Raptor'
p357
I00
sS'Druid of the Saber'
p358
I00
sS'Fandral Staghelm'
p359
I01
sS'Wildwalker'
p360
I00
sS'Malorne'
p361
I01
sS'Celestial Dreamer'
p362
I00
sS'Mire Keeper'
p363
I00
sS'Virmen Sensei'
p364
I00
ssS'Neutral'
p365
(dp366
S'Doomcaller'
p367
I00
sS'Zoobot'
p368
I00
sS'Salty Dog'
p369
I00
sS"Captain's Parrot"
p370
I00
sS'Blood Knight'
p371
I00
sS'Amani Berserker'
p372
I00
sS'Dragonling Mechanic'
p373
I00
sS"Light's Champion"
p374
I00
sS'Stormpike Commando'
p375
I00
sS'Moat Lurker'
p376
I00
sS'Sergeant Sally'
p377
I01
sS'The Curator'
p378
I01
sS'Shattered Sun Cleric'
p379
I00
sS'Undertaker'
p380
I00
sS'Scaled Nightmare'
p381
I00
sS'Volcanic Drake'
p382
I00
sS'Toshley'
p383
I01
sS'Jungle Panther'
p384
I00
sS'Faceless Manipulator'
p385
I00
sS'Gnomish Experimenter'
p386
I00
sS'Booty Bay Bodyguard'
p387
I00
sS'Gormok the Impaler'
p388
I01
sS'Violet Teacher'
p389
I00
sS'Lightwarden'
p390
I00
sS'Mini-Mage'
p391
I00
sS'Tournament Medic'
p392
I00
sS'Windfury Harpy'
p393
I00
sS'Book Wyrm'
p394
I00
sS'Arcane Anomaly'
p395
I00
sS'Dark Iron Dwarf'
p396
I00
sS'Anubisath Sentinel'
p397
I00
sS'Shade of Naxxramas'
p398
I00
sS"Nerub'ar Weblord"
p399
I00
sS'Clockwork Knight'
p400
I00
sS'Stoneskin Gargoyle'
p401
I00
sS'Hogger, Doom of Elwynn'
p402
I01
sS'Spectral Knight'
p403
I00
sS'Rend Blackhand'
p404
I01
sS'Mukla, Tyrant of the Vale'
p405
I01
sS'Novice Engineer'
p406
I00
sS'Illuminator'
p407
I00
sS'Grook Fu Master'
p408
I00
sS'Bloodsail Corsair'
p409
I00
sS'Madder Bomber'
p410
I00
sS'Defender of Argus'
p411
I00
sS'Arcane Giant'
p412
I00
sS'Foe Reaper 4000'
p413
I01
sS'Master Swordsmith'
p414
I00
sS'Worgen Infiltrator'
p415
I00
sS'Spider Tank'
p416
I00
sS'Aya Blackpaw'
p417
I01
sS'Grimestreet Smuggler'
p418
I00
sS'Majordomo Executus'
p419
I01
sS"Ship's Cannon"
p420
I00
sS'Baron Geddon'
p421
I01
sS'Chillwind Yeti'
p422
I00
sS'Nozdormu'
p423
I01
sS'Eerie Statue'
p424
I00
sS'Mistress of Mixtures'
p425
I00
sS'Summoning Stone'
p426
I00
sS'Crowd Favorite'
p427
I00
sS'Ancient Mage'
p428
I00
sS"Mogor's Champion"
p429
I00
sS"C'Thun"
p430
I01
sS'Goblin Sapper'
p431
I00
sS'Piloted Sky Golem'
p432
I00
sS"Skycap'n Kragg"
p433
I01
sS'Bolf Ramshield'
p434
I01
sS'Finja, the Flying Star'
p435
I01
sS'Cult Master'
p436
I00
sS'Big Game Hunter'
p437
I00
sS'Silent Knight'
p438
I00
sS'Gelbin Mekkatorque'
p439
I01
sS'Mad Bomber'
p440
I00
sS'Twilight Elder'
p441
I00
sS'Icehowl'
p442
I01
sS'Murloc Tidehunter'
p443
I00
sS'Doomsayer'
p444
I00
sS'Hired Gun'
p445
I00
sS'Street Trickster'
p446
I00
sS'Echoing Ooze'
p447
I00
sS'Maexxna'
p448
I01
sS'Onyxia'
p449
I01
sS'Acolyte of Pain'
p450
I00
sS'Hozen Healer'
p451
I00
sS'Elven Archer'
p452
I00
sS'Troggzor the Earthinator'
p453
I01
sS'Midnight Drake'
p454
I00
sS'Alarm-o-Bot'
p455
I00
sS'Archmage'
p456
I00
sS'Silver Hand Knight'
p457
I00
sS'Goldshire Footman'
p458
I00
sS'Patches the Pirate'
p459
I01
sS'Daring Reporter'
p460
I00
sS'Mayor Noggenfogger'
p461
I01
sS'Argent Horserider'
p462
I00
sS'Stalagg'
p463
I01
sS'Chillmaw'
p464
I01
sS'Murloc Tinyfin'
p465
I00
sS'Cogmaster'
p466
I00
sS'Backstreet Leper'
p467
I00
sS'Saboteur'
p468
I00
sS'Reno Jackson'
p469
I01
sS'Dalaran Mage'
p470
I00
sS'Grim Patron'
p471
I00
sS'Tanaris Hogchopper'
p472
I00
sS'Ogre Brute'
p473
I00
sS'Hogger'
p474
I01
sS'Haunted Creeper'
p475
I00
sS'Sludge Belcher'
p476
I00
sS'Lotus Agents'
p477
I00
sS'Corrupted Seer'
p478
I00
sS'Annoy-o-Tron'
p479
I00
sS'Acidic Swamp Ooze'
p480
I00
sS'Jeeves'
p481
I00
sS'Doppelgangster'
p482
I00
sS'Stonesplinter Trogg'
p483
I00
sS'Barnes'
p484
I01
sS'Recruiter'
p485
I00
sS'Netherspite Historian'
p486
I00
sS'Coliseum Manager'
p487
I00
sS'Duskboar'
p488
I00
sS'Puddlestomper'
p489
I00
sS'Arch-Thief Rafaam'
p490
I01
sS'Dirty Rat'
p491
I00
sS'Aberrant Berserker'
p492
I00
sS'Darkspeaker'
p493
I00
sS'Eater of Secrets'
p494
I00
sS'Moroes'
p495
I01
sS'Azure Drake'
p496
I00
sS'Friendly Bartender'
p497
I00
sS'Baron Rivendare'
p498
I01
sS'Sir Finley Mrrgglton'
p499
I01
sS'Twisted Worgen'
p500
I00
sS'Illidan Stormrage'
p501
I01
sS'Naga Sea Witch'
p502
I00
sS'Cairne Bloodhoof'
p503
I01
sS'War Golem'
p504
I00
sS'Darkscale Healer'
p505
I00
sS'Gnomeregan Infantry'
p506
I00
sS'Faerie Dragon'
p507
I00
sS'Abomination'
p508
I00
sS'Ironforge Rifleman'
p509
I00
sS'Stampeding Kodo'
p510
I00
sS'Kooky Chemist'
p511
I00
sS'Pit Fighter'
p512
I00
sS'Bloodmage Thalnos'
p513
I01
sS'Small-Time Buccaneer'
p514
I00
sS'Dread Corsair'
p515
I00
sS'Ironfur Grizzly'
p516
I00
sS'Bomb Lobber'
p517
I00
sS'Zealous Initiate'
p518
I00
sS'Gazlowe'
p519
I01
sS'Kezan Mystic'
p520
I00
sS'Lance Carrier'
p521
I00
sS'Skeram Cultist'
p522
I00
sS'Nefarian'
p523
I01
sS'Toxic Sewer Ooze'
p524
I00
sS'Blackwing Corruptor'
p525
I00
sS'Venture Co. Mercenary'
p526
I00
sS'Boulderfist Ogre'
p527
I00
sS'Burly Rockjaw Trogg'
p528
I00
sS'Ice Rager'
p529
I00
sS'Grimestreet Informant'
p530
I00
sS'Bilefin Tidehunter'
p531
I00
sS'Kabal Courier'
p532
I00
sS'Harvest Golem'
p533
I00
sS'Blackwater Pirate'
p534
I00
sS'Defias Cleaner'
p535
I00
sS'Cult Apothecary'
p536
I00
sS'Imp Master'
p537
I00
sS'Captured Jormungar'
p538
I00
sS'Emperor Cobra'
p539
I00
sS'Gadgetzan Auctioneer'
p540
I00
sS'Ragnaros the Firelord'
p541
I01
sS'Gadgetzan Socialite'
p542
I00
sS'Sunwalker'
p543
I00
sS'The Skeleton Knight'
p544
I01
sS'Demolisher'
p545
I00
sS'Hobgoblin'
p546
I00
sS'Argent Commander'
p547
I00
sS'Backroom Bouncer'
p548
I00
sS'Priestess of Elune'
p549
I00
sS'Mad Scientist'
p550
I00
sS'Voodoo Doctor'
p551
I00
sS'Flame Juggler'
p552
I00
sS'Pantry Spider'
p553
I00
sS'Tinkmaster Overspark'
p554
I01
sS'Bloodsail Raider'
p555
I00
sS'Stormwind Knight'
p556
I00
sS'Arcanosmith'
p557
I00
sS'Auctionmaster Beardo'
p558
I01
sS'Nexus-Champion Saraad'
p559
I01
sS'Bloodfen Raptor'
p560
I00
sS'Frostwolf Grunt'
p561
I00
sS'Kazakus'
p562
I01
sS'Gnomish Inventor'
p563
I00
sS'Blood of The Ancient One'
p564
I00
sS'Refreshment Vendor'
p565
I00
sS'Raid Leader'
p566
I00
sS'Argent Watchman'
p567
I00
sS'Beckoner of Evil'
p568
I00
sS'Ancient Watcher'
p569
I00
sS'Evil Heckler'
p570
I00
sS'Ironbeak Owl'
p571
I00
sS'Kodorider'
p572
I00
sS'Sea Giant'
p573
I00
sS'Twilight Guardian'
p574
I00
sS'Nat Pagle'
p575
I01
sS'Maiden of the Lake'
p576
I00
sS'Fel Orc Soulfiend'
p577
I00
sS'Magma Rager'
p578
I00
sS'Shieldbearer'
p579
I00
sS'Leeroy Jenkins'
p580
I01
sS"Lil' Exorcist"
p581
I00
sS'Wolfrider'
p582
I00
sS'Blingtron 3000'
p583
I01
sS'Murloc Tidecaller'
p584
I00
sS'Earthen Ring Farseer'
p585
I00
sS'Mogor the Ogre'
p586
I01
sS"Sneed's Old Shredder"
p587
I01
sS'Gorillabot A-3'
p588
I00
sS'Antique Healbot'
p589
I00
sS'Clockwork Gnome'
p590
I00
sS'Faceless Shambler'
p591
I00
sS'Master of Ceremonies'
p592
I00
sS'Wisp'
p593
I00
sS'King Mukla'
p594
I01
sS'Gilblin Stalker'
p595
I00
sS'Silvermoon Guardian'
p596
I00
sS'Tauren Warrior'
p597
I00
sS'Stonetusk Boar'
p598
I00
sS'Angry Chicken'
p599
I00
sS"Y'Shaarj, Rage Unbound"
p600
I01
sS'Sideshow Spelleater'
p601
I00
sS'Deathlord'
p602
I00
sS"Twin Emperor Vek'lor"
p603
I01
sS'Fel Reaver'
p604
I00
sS'Crazed Worshipper'
p605
I00
sS'Bomb Squad'
p606
I00
sS'Prince Malchezaar'
p607
I01
sS'Menagerie Magician'
p608
I00
sS'Thrallmar Farseer'
p609
I00
sS'Harrison Jones'
p610
I01
sS'Silithid Swarmer'
p611
I00
sS'Sylvanas Windrunner'
p612
I01
sS'Weasel Tunneler'
p613
I00
sS'Violet Illusionist'
p614
I00
sS'Malygos'
p615
I01
sS'Arcane Golem'
p616
I00
sS'Shifter Zerus'
p617
I01
sS"Disciple of C'Thun"
p618
I00
sS'Madam Goya'
p619
I01
sS"N'Zoth, the Corruptor"
p620
I01
sS'Fight Promoter'
p621
I00
sS'Tournament Attendee'
p622
I00
sS'Captain Greenskin'
p623
I01
sS'Stranglethorn Tiger'
p624
I00
sS'Lorewalker Cho'
p625
I01
sS'Murloc Raider'
p626
I00
sS'Blubber Baron'
p627
I00
sS'Lord of the Arena'
p628
I00
sS'Nat, the Darkfisher'
p629
I01
sS'Kvaldir Raider'
p630
I00
sS'Coldlight Seer'
p631
I00
sS'North Sea Kraken'
p632
I00
sS'Deathwing, Dragonlord'
p633
I01
sS'Lost Tallstrider'
p634
I00
sS'Grotesque Dragonhawk'
p635
I00
sS'Zombie Chow'
p636
I00
sS'Coldlight Oracle'
p637
I00
sS'Dragonkin Sorcerer'
p638
I00
sS'Mana Wraith'
p639
I00
sS'Micro Machine'
p640
I00
sS'Garrison Commander'
p641
I00
sS'Silver Hand Regent'
p642
I00
sS'Corrupted Healbot'
p643
I00
sS'Dire Wolf Alpha'
p644
I00
sS"Don Han'Cho"
p645
I01
sS'Dragonhawk Rider'
p646
I00
sS'Youthful Brewmaster'
p647
I00
sS'Bluegill Warrior'
p648
I00
sS'Ancient Brewmaster'
p649
I00
sS'Fencing Coach'
p650
I00
sS'Grand Crusader'
p651
I00
sS'Force-Tank MAX'
p652
I00
sS'Argent Squire'
p653
I00
sS'Mekgineer Thermaplugg'
p654
I01
sS'Recombobulator'
p655
I00
sS'Nerubian Egg'
p656
I00
sS'Jade Spirit'
p657
I00
sS'Knife Juggler'
p658
I00
sS'Loatheb'
p659
I01
sS'Wobbling Runts'
p660
I00
sS"Mukla's Champion"
p661
I00
sS'Ysera'
p662
I01
sS'Armored Warhorse'
p663
I00
sS'Piloted Shredder'
p664
I00
sS'Djinni of Zephyrs'
p665
I00
sS'Twilight Summoner'
p666
I00
sS'Gruul'
p667
I01
sS'Oasis Snapjaw'
p668
I00
sS'The Boogeymonster'
p669
I01
sS'Streetwise Investigator'
p670
I00
sS'Abusive Sergeant'
p671
I00
sS'Frost Elemental'
p672
I00
sS'Red Mana Wyrm'
p673
I00
sS'Dr. Boom'
p674
I01
sS'Eldritch Horror'
p675
I00
sS'Enhance-o Mechano'
p676
I00
sS'Ancient Shade'
p677
I00
sS'Silverback Patriarch'
p678
I00
sS'Genzo, the Shark'
p679
I01
sS'Squirming Tentacle'
p680
I00
sS'Polluted Hoarder'
p681
I00
sS'Second-Rate Bruiser'
p682
I00
sS'Soggoth the Slitherer'
p683
I01
sS'Tomb Spider'
p684
I00
sS'Leatherclad Hogleader'
p685
I00
sS'Unstable Ghoul'
p686
I00
sS'Master Jouster'
p687
I00
sS'Brann Bronzebeard'
p688
I01
sS'The Beast'
p689
I01
sS'Nightblade'
p690
I00
sS'Naga Corsair'
p691
I00
sS'Evolved Kobold'
p692
I00
sS'Mind Control Tech'
p693
I00
sS'Fen Creeper'
p694
I00
sS'Infested Tauren'
p695
I00
sS'Alexstrasza'
p696
I01
sS'Huge Toad'
p697
I00
sS'Mana Addict'
p698
I00
sS'Hungry Crab'
p699
I00
sS'Hungry Dragon'
p700
I00
sS'Deathwing'
p701
I01
sS'Psych-o-Tron'
p702
I00
sS'Wrathion'
p703
I01
sS'Scarlet Crusader'
p704
I00
sS'Leper Gnome'
p705
I00
sS'Jeweled Scarab'
p706
I00
sS'Eydis Darkbane'
p707
I01
sS'Ravenholdt Assassin'
p708
I00
sS'Drakonid Crusher'
p709
I00
sS'Frostwolf Warlord'
p710
I00
sS'Secretkeeper'
p711
I00
sS'Big-Time Racketeer'
p712
I00
sS"Yogg-Saron, Hope's End"
p713
I01
sS'Faceless Behemoth'
p714
I00
sS'Old Murk-Eye'
p715
I01
sS'Mountain Giant'
p716
I00
sS'Raging Worgen'
p717
I00
sS'Spellbreaker'
p718
I00
sS'Frost Giant'
p719
I00
sS'Young Priestess'
p720
I00
sS'Wind-up Burglebot'
p721
I00
sS'Validated Doomsayer'
p722
I00
sS'Feugen'
p723
I01
sS'Questing Adventurer'
p724
I00
sS'Emperor Thaurissan'
p725
I01
sS'Mechanical Yeti'
p726
I00
sS'Flying Machine'
p727
I00
sS'Murloc Warleader'
p728
I00
sS'Wild Pyromancer'
p729
I00
sS'Frigid Snobold'
p730
I00
sS'Nerubian Prophet'
p731
I00
sS'Clockwork Giant'
p732
I00
sS'Bog Creeper'
p733
I00
sS'Twilight Drake'
p734
I00
sS'Injured Kvaldir'
p735
I00
sS'Twilight Geomancer'
p736
I00
sS'Target Dummy'
p737
I00
sS'Fjola Lightbane'
p738
I01
sS"Sen'jin Shieldmasta"
p739
I00
sS'Medivh, the Guardian'
p740
I01
sS'Millhouse Manastorm'
p741
I01
sS'Kobold Geomancer'
p742
I00
sS'Sunfury Protector'
p743
I00
sS"Mimiron's Head"
p744
I01
sS'Ogre Magi'
p745
I00
sS'Wailing Soul'
p746
I00
sS"Am'gam Rager"
p747
I00
sS'Chromaggus'
p748
I01
sS'Molten Giant'
p749
I00
sS'Fossilized Devilsaur'
p750
I00
sS"Kel'Thuzad"
p751
I01
sS'Tinkertown Technician'
p752
I00
sS'Gadgetzan Jouster'
p753
I00
sS'Boneguard Lieutenant'
p754
I00
sS'Reckless Rocketeer'
p755
I00
sS'Justicar Trueheart'
p756
I01
sS'Junkbot'
p757
I00
sS'Elite Tauren Chieftain'
p758
I01
sS'Loot Hoarder'
p759
I00
sS"Tentacle of N'Zoth"
p760
I00
sS"Mogu'shan Warden"
p761
I00
sS'Arcane Nullifier X-21'
p762
I00
sS'Ancient Harbinger'
p763
I00
sS'River Crocolisk'
p764
I00
sS'Injured Blademaster'
p765
I00
sS'Hemet Nesingwary'
p766
I01
sS'Dancing Swords'
p767
I00
sS'Core Hound'
p768
I00
sS'Spiteful Smith'
p769
I00
sS'Gurubashi Berserker'
p770
I00
sS'Blackwing Technician'
p771
I00
sS'Mechwarper'
p772
I00
sS'Explosive Sheep'
p773
I00
sS'Southsea Captain'
p774
I00
sS'Ancient of Blossoms'
p775
I00
sS'Elise Starseeker'
p776
I01
sS'Cyclopian Horror'
p777
I00
sS'Avian Watcher'
p778
I00
sS'Razorfen Hunter'
p779
I00
sS'Southsea Deckhand'
p780
I00
sS'Spiked Hogrider'
p781
I00
sS'Flesheating Ghoul'
p782
I00
sS'Young Dragonhawk'
p783
I00
sS'Crazed Alchemist'
p784
I00
sS'Stormwind Champion'
p785
I00
sS'Runic Egg'
p786
I00
sS'Blowgill Sniper'
p787
I00
sS'Lowly Squire'
p788
I00
sS'Pompous Thespian'
p789
I00
sS'The Black Knight'
p790
I01
sS"Spawn of N'Zoth"
p791
I00
sS'Dragon Egg'
p792
I00
sS'Pint-Sized Summoner'
p793
I00
sS'Kabal Chemist'
p794
I00
sS'Grimscale Oracle'
p795
I00
sS"C'Thun's Chosen"
p796
I00
sS'Worgen Greaser'
p797
I00
sS'Burgly Bully'
p798
I00
ssS'Rogue'
p799
(dp800
S'Undercity Huckster'
p801
I00
sS'Cutpurse'
p802
I00
sS'Southsea Squidface'
p803
I00
sS'Unearthed Raptor'
p804
I00
sS'Kidnapper'
p805
I00
sS'Shadow Sensei'
p806
I00
sS'Tomb Pillager'
p807
I00
sS'Swashburglar'
p808
I00
sS"Tinker's Sharpsword Oil"
p809
I00
sS'Shadow Strike'
p810
I00
sS'Shadow Rager'
p811
I00
sS'Defias Ringleader'
p812
I00
sS'Jade Swarmer'
p813
I00
sS'Sinister Strike'
p814
I00
sS'Eviscerate'
p815
I00
sS'Shady Dealer'
p816
I00
sS'Sabotage'
p817
I00
sS'Assassinate'
p818
I00
sS'Undercity Valiant'
p819
I00
sS'Ethereal Peddler'
p820
I00
sS'Lotus Assassin'
p821
I00
sS'Deadly Poison'
p822
I00
sS'Ogre Ninja'
p823
I00
sS'Betrayal'
p824
I00
sS'Headcrack'
p825
I00
sS'Gadgetzan Ferryman'
p826
I00
sS'Cold Blood'
p827
I00
sS'SI:7 Agent'
p828
I00
sS'One-eyed Cheat'
p829
I00
sS'Vanish'
p830
I00
sS'Burgle'
p831
I00
sS'Luckydo Buccaneer'
p832
I00
sS"Anub'ar Ambusher"
p833
I00
sS'Shaku, the Collector'
p834
I01
sS'Trade Prince Gallywix'
p835
I01
sS'Goblin Auto-Barber'
p836
I00
sS'Backstab'
p837
I00
sS"Cogmaster's Wrench"
p838
I00
sS'Fan of Knives'
p839
I00
sS'Conceal'
p840
I00
sS'Dark Iron Skulker'
p841
I00
sS'Iron Sensei'
p842
I00
sS'Xaril, Poisoned Mind'
p843
I01
sS'Preparation'
p844
I00
sS'Gang Up'
p845
I00
sS'Pit Snake'
p846
I00
sS"Anub'arak"
p847
I01
sS'Bladed Cultist'
p848
I00
sS'Shadowcaster'
p849
I00
sS'Counterfeit Coin'
p850
I00
sS'Shado-Pan Rider'
p851
I00
sS'Jade Shuriken'
p852
I00
sS'Master of Disguise'
p853
I00
sS'Edwin VanCleef'
p854
I01
sS'Deadly Fork'
p855
I00
sS'Sap'
p856
I00
sS"Assassin's Blade"
p857
I00
sS'Shadowstep'
p858
I00
sS"Perdition's Blade"
p859
I00
sS'Thistle Tea'
p860
I00
sS'Patient Assassin'
p861
I00
sS'Poisoned Blade'
p862
I00
sS'Blade Flurry'
p863
I00
sS'Journey Below'
p864
I00
sS'Beneath the Grounds'
p865
I00
sS'Buccaneer'
p866
I00
sS'Sprint'
p867
I00
sS'Valeera Sanguinar'
p868
I00
sS'Shiv'
p869
I00
sS"Blade of C'Thun"
p870
I00
ssS'Shaman'
p871
(dp872
S'Primal Fusion'
p873
I00
sS'Ancestral Spirit'
p874
I00
sS'Jade Chieftain'
p875
I00
sS'Thing from Below'
p876
I00
sS'Jade Claws'
p877
I00
sS'Thrall'
p878
I00
sS'Wicked Witchdoctor'
p879
I00
sS'Bloodlust'
p880
I00
sS'Jinyu Waterspeaker'
p881
I00
sS'Unbound Elemental'
p882
I00
sS'Dunemaul Shaman'
p883
I00
sS'Tunnel Trogg'
p884
I00
sS'Lightning Storm'
p885
I00
sS'Vitality Totem'
p886
I00
sS'Call in the Finishers'
p887
I00
sS'Flamewreathed Faceless'
p888
I00
sS'Everyfin is Awesome'
p889
I00
sS'Evolve'
p890
I00
sS'Fireguard Destroyer'
p891
I00
sS'Elemental Destruction'
p892
I00
sS'Spirit Claws'
p893
I00
sS'Dust Devil'
p894
I00
sS'Charged Hammer'
p895
I00
sS'Lava Burst'
p896
I00
sS'Morgl the Oracle'
p897
I00
sS'Fire Elemental'
p898
I00
sS'Frost Shock'
p899
I00
sS'Finders Keepers'
p900
I00
sS'Hammer of Twilight'
p901
I00
sS'Draenei Totemcarver'
p902
I00
sS'White Eyes'
p903
I01
sS'Lava Shock'
p904
I00
sS'Stormforged Axe'
p905
I00
sS'Lightning Bolt'
p906
I00
sS'Hallazeal the Ascended'
p907
I01
sS'Lotus Illusionist'
p908
I00
sS'Tuskarr Totemic'
p909
I00
sS'Earth Shock'
p910
I00
sS'Mana Tide Totem'
p911
I00
sS'Powermace'
p912
I00
sS'Healing Wave'
p913
I00
sS'Windfury'
p914
I00
sS'Totemic Might'
p915
I00
sS'Maelstrom Portal'
p916
I00
sS'Reincarnate'
p917
I00
sS'Hex'
p918
I00
sS'Feral Spirit'
p919
I00
sS"Ancestor's Call"
p920
I00
sS'Far Sight'
p921
I00
sS'Flametongue Totem'
p922
I00
sS'Devolve'
p923
I00
sS'Eternal Sentinel'
p924
I00
sS'Windspeaker'
p925
I00
sS'The Mistcaller'
p926
I01
sS'Jade Lightning'
p927
I00
sS'Forked Lightning'
p928
I00
sS'Rumbling Elemental'
p929
I00
sS'Crackle'
p930
I00
sS'Master of Evolution'
p931
I00
sS'Doomhammer'
p932
I00
sS"Al'Akir the Windlord"
p933
I01
sS'Whirling Zap-o-matic'
p934
I00
sS'Ancestral Knowledge'
p935
I00
sS'Neptulon'
p936
I01
sS'Stormcrack'
p937
I00
sS'Ancestral Healing'
p938
I00
sS'Rockbiter Weapon'
p939
I00
sS'Totem Golem'
p940
I00
sS'Siltfin Spiritwalker'
p941
I00
sS'Earth Elemental'
p942
I00
sS'Thunder Bluff Valiant'
p943
I00
ssS'Mage'
p944
(dp945
S'Demented Frostcaller'
p946
I00
sS'Vaporize'
p947
I00
sS'Manic Soulcaster'
p948
I00
sS'Ice Block'
p949
I00
sS'Greater Arcane Missiles'
p950
I00
sS'Water Elemental'
p951
I00
sS'Potion of Polymorph'
p952
I00
sS'Duplicate'
p953
I00
sS'Pyroblast'
p954
I00
sS'Archmage Antonidas'
p955
I01
sS'Blizzard'
p956
I00
sS'Flamewaker'
p957
I00
sS'Firelands Portal'
p958
I00
sS'Faceless Summoner'
p959
I00
sS'Snowchugger'
p960
I00
sS'Arcane Missiles'
p961
I00
sS"Medivh's Valet"
p962
I00
sS'Rhonin'
p963
I01
sS'Soot Spewer'
p964
I00
sS'Mana Wyrm'
p965
I00
sS'Flamestrike'
p966
I00
sS'Flamecannon'
p967
I00
sS'Khadgar'
p968
I00
sS'Shatter'
p969
I00
sS"Cabalist's Tome"
p970
I00
sS'Cone of Cold'
p971
I00
sS'Flame Leviathan'
p972
I01
sS'Ethereal Arcanist'
p973
I00
sS"Sorcerer's Apprentice"
p974
I00
sS'Fallen Hero'
p975
I00
sS'Jaina Proudmoore'
p976
I00
sS'Ice Barrier'
p977
I00
sS'Forbidden Flame'
p978
I00
sS'Cult Sorcerer'
p979
I00
sS'Echo of Medivh'
p980
I00
sS'Animated Armor'
p981
I00
sS'Cryomancer'
p982
I00
sS'Goblin Blastmage'
p983
I00
sS'Frostbolt'
p984
I00
sS'Kirin Tor Mage'
p985
I00
sS'Polymorph: Boar'
p986
I00
sS'Frost Nova'
p987
I00
sS'Forgotten Torch'
p988
I00
sS'Ethereal Conjurer'
p989
I00
sS'Freezing Potion'
p990
I00
sS'Coldarra Drake'
p991
I00
sS'Wee Spellstopper'
p992
I00
sS'Mirror Entity'
p993
I00
sS'Ice Lance'
p994
I00
sS'Twilight Flamecaller'
p995
I00
sS'Dalaran Aspirant'
p996
I00
sS'Fireball'
p997
I00
sS'Servant of Yogg-Saron'
p998
I00
sS'Spellbender'
p999
I00
sS'Spellslinger'
p1000
I00
sS'Counterspell'
p1001
I00
sS'Mirror Image'
p1002
I00
sS'Inkmaster Solia'
p1003
I01
sS'Effigy'
p1004
I00
sS'Volcanic Potion'
p1005
I00
sS'Arcane Blast'
p1006
I00
sS'Polymorph'
p1007
I00
sS'Unstable Portal'
p1008
I00
sS'Kabal Lackey'
p1009
I00
sS'Flame Lance'
p1010
I00
sS'Arcane Intellect'
p1011
I00
sS'Arcane Explosion'
p1012
I00
sS'Kabal Crystal Runner'
p1013
I00
sS'Babbling Book'
p1014
I00
sS"Dragon's Breath"
p1015
I00
sS'Anomalus'
p1016
I01
sS'Medivh'
p1017
I00
ss.