(dp0
S'Emperor Thaurissan'
p1
I491
sS'Doomcaller'
p2
I1
sS'Eaglehorn Bow'
p3
I2
sS"Tinker's Sharpsword Oil"
p4
I3
sS'Blood Knight'
p5
I4
sS'Explosive Shot'
p6
I5
sS'Lightning Storm'
p7
I6
sS'Selfless Hero'
p8
I7
sS'Blade Flurry'
p9
I8
sS'The Curator'
p10
I9
sS'Goblin Blastmage'
p11
I10
sS'Frostbolt'
p12
I11
sS'Murloc Warleader'
p13
I426
sS'Ethereal Conjurer'
p14
I12
sS'Ice Lance'
p15
I13
sS'Flash Heal'
p16
I14
sS'Faceless Manipulator'
p17
I15
sS'Competitive Spirit'
p18
I16
sS'Houndmaster'
p19
I17
sS'Mirror Image'
p20
I18
sS'Druid of the Saber'
p21
I19
sS'Journey Below'
p22
I20
sS'Holy Smite'
p23
I21
sS'Mire Keeper'
p24
I22
sS'Gormok the Impaler'
p25
I23
sS'Water Elemental'
p26
I24
sS'Meanstreet Marshal'
p27
I25
sS'Ironforge Portal'
p28
I26
sS'Armorsmith'
p29
I27
sS'Auchenai Soulpriest'
p30
I28
sS'Drakonid Operative'
p31
I29
sS'Archmage Antonidas'
p32
I30
sS'Silent Knight'
p33
I83
sS'Jade Idol'
p34
I32
sS'Arcane Missiles'
p35
I33
sS'Book Wyrm'
p36
I35
sS'Ragnaros, Lightlord'
p37
I36
sS'Dark Iron Dwarf'
p38
I37
sS'Conceal'
p39
I431
sS'Shade of Naxxramas'
p40
I39
sS'Fierce Monkey'
p41
I41
sS'Argent Protector'
p42
I42
sS'Felfire Potion'
p43
I43
sS'Tuskarr Totemic'
p44
I480
sS'Equality'
p45
I44
sS'Twilight Elder'
p46
I85
sS'Resurrect'
p47
I46
sS'Mukla, Tyrant of the Vale'
p48
I47
sS'Novice Engineer'
p49
I48
sS'Far Sight'
p50
I49
sS'Steward of Darkshire'
p51
I50
sS'Counterfeit Coin'
p52
I51
sS'Fan of Knives'
p53
I52
sS'Counterspell'
p54
I53
sS'Twilight Drake'
p55
I434
sS'Freezing Trap'
p56
I55
sS'Feral Rage'
p57
I56
sS'Jungle Moonkin'
p58
I395
sS'Defender of Argus'
p59
I57
sS'Shieldmaiden'
p60
I58
sS'Dreadscale'
p61
I59
sS"Mal'Ganis"
p62
I60
sS'Worgen Infiltrator'
p63
I61
sS'Jeweled Scarab'
p64
I86
sS'Aya Blackpaw'
p65
I63
sS'Baron Geddon'
p66
I64
sS'Arathi Weaponsmith'
p67
I65
sS'Hellfire'
p68
I66
sS"Al'Akir the Windlord"
p69
I67
sS'Jade Behemoth'
p70
I68
sS'Mistress of Mixtures'
p71
I69
sS'Kabal Songstealer'
p72
I70
sS'SI:7 Agent'
p73
I71
sS'Humility'
p74
I72
sS"C'Thun"
p75
I73
sS'Redemption'
p76
I74
sS'Totemic Might'
p77
I75
sS'Force of Nature'
p78
I76
sS'Mortal Coil'
p79
I77
sS'Finja, the Flying Star'
p80
I78
sS'Whirlwind'
p81
I79
sS'Blizzard'
p82
I80
sS'Master of Evolution'
p83
I265
sS'Tournament Medic'
p84
I31
sS'Sergeant Sally'
p85
I84
sS'Dark Iron Skulker'
p86
I45
sS'Buccaneer'
p87
I87
sS'Doomsayer'
p88
I88
sS'Dark Arakkoa'
p89
I89
sS'Polymorph'
p90
I90
sS'Onyx Bishop'
p91
I91
sS'Echoing Ooze'
p92
I92
sS'Darkshire Alchemist'
p93
I93
sS'Onyxia'
p94
I94
sS'Acolyte of Pain'
p95
I95
sS'Flamewreathed Faceless'
p96
I457
sS'Grimscale Chum'
p97
I96
sS"Mark of Y'Shaarj"
p98
I97
sS'Voidwalker'
p99
I98
sS'Dr. Boom'
p100
I351
sS'Wild Growth'
p101
I101
sS"Sorcerer's Apprentice"
p102
I102
sS'Patches the Pirate'
p103
I103
sS'Call of the Wild'
p104
I104
sS'Argent Horserider'
p105
I443
sS'White Eyes'
p106
I106
sS'Jade Lightning'
p107
I287
sS'Rat Pack'
p108
I109
sS'Chillmaw'
p109
I110
sS"Velen's Chosen"
p110
I111
sS'Cogmaster'
p111
I112
sS'Thunder Bluff Valiant'
p112
I113
sS'Frothing Berserker'
p113
I114
sS'Grim Patron'
p114
I115
sS'Entomb'
p115
I116
sS'Shield Block'
p116
I117
sS'Lock and Load'
p117
I118
sS'Bloodlust'
p118
I120
sS'Sludge Belcher'
p119
I121
sS'Fandral Staghelm'
p120
I122
sS'Lotus Agents'
p121
I123
sS'Shiv'
p122
I124
sS'Annoy-o-Tron'
p123
I125
sS'Acidic Swamp Ooze'
p124
I126
sS'Wrath'
p125
I128
sS'Explosive Trap'
p126
I129
sS'Barnes'
p127
I130
sS'Netherspite Historian'
p128
I131
sS'Shadow Strike'
p129
I132
sS'Bloodsail Cultist'
p130
I133
sS'Evolve'
p131
I134
sS'Nourish'
p132
I135
sS'Dirty Rat'
p133
I136
sS'Hooded Acolyte'
p134
I137
sS"Malchezaar's Imp"
p135
I138
sS'Eater of Secrets'
p136
I139
sS'Azure Drake'
p137
I140
sS'On the Hunt'
p138
I81
sS'Cult Sorcerer'
p139
I142
sS'Siphon Soul'
p140
I143
sS'Sir Finley Mrrgglton'
p141
I144
sS'Execute'
p142
I145
sS'Twisted Worgen'
p143
I146
sS"Alexstrasza's Champion"
p144
I147
sS'Naga Sea Witch'
p145
I148
sS"Light's Justice"
p146
I149
sS'Cairne Bloodhoof'
p147
I150
sS'Fireball'
p148
I151
sS'Darkbomb'
p149
I152
sS'Deadly Shot'
p150
I154
sS'Faerie Dragon'
p151
I155
sS'Crackle'
p152
I156
sS'Menagerie Warden'
p153
I157
sS'Sap'
p154
I158
sS'Stampeding Kodo'
p155
I159
sS'Muster for Battle'
p156
I160
sS'Undercity Huckster'
p157
I161
sS'Bloodmage Thalnos'
p158
I162
sS'Small-Time Buccaneer'
p159
I163
sS'Battle Rage'
p160
I164
sS'Dread Corsair'
p161
I165
sS'Elemental Destruction'
p162
I166
sS'Big Game Hunter'
p163
I167
sS'Wrathguard'
p164
I168
sS'Spirit Claws'
p165
I169
sS'Lance Carrier'
p166
I170
sS'Innervate'
p167
I171
sS'Divine Favor'
p168
I172
sS'Abyssal Enforcer'
p169
I173
sS'Inner Rage'
p170
I174
sS'Blackwing Corruptor'
p171
I175
sS"King's Elekk"
p172
I176
sS'Kindly Grandmother'
p173
I177
sS'Bilefin Tidehunter'
p174
I178
sS'Kabal Courier'
p175
I179
sS'Flame Imp'
p176
I180
sS'Doomhammer'
p177
I181
sS'Museum Curator'
p178
I182
sS'Fiery Bat'
p179
I183
sS'Shadow Word: Death'
p180
I184
sS'Cult Apothecary'
p181
I185
sS'Ancient of Lore'
p182
I186
sS'I Know a Guy'
p183
I187
sS'Captain Greenskin'
p184
I295
sS'Spellslinger'
p185
I189
sS'Keeper of the Grove'
p186
I449
sS'Gadgetzan Auctioneer'
p187
I190
sS'Doomguard'
p188
I460
sS'Power of the Wild'
p189
I192
sS'Manic Soulcaster'
p190
I193
sS'Shadow Bolt'
p191
I194
sS'Ivory Knight'
p192
I195
sS'Argent Commander'
p193
I196
sS'Fire Elemental'
p194
I461
sS'Savage Roar'
p195
I198
sS'Pyroblast'
p196
I199
sS'Mad Scientist'
p197
I200
sS'Violet Teacher'
p198
I82
sS'Flame Juggler'
p199
I201
sS'Pantry Spider'
p200
I202
sS'Bloodsail Raider'
p201
I203
sS'Whirling Zap-o-matic'
p202
I204
sS'Arcanosmith'
p203
I205
sS'Cone of Cold'
p204
I206
sS'Fist of Jaraxxus'
p205
I207
sS'Nexus-Champion Saraad'
p206
I208
sS'Ancient of War'
p207
I209
sS'Dragon Consort'
p208
I210
sS'Kazakus'
p209
I211
sS'Lava Shock'
p210
I212
sS'Cloaked Huntress'
p211
I213
sS'Leeroy Jenkins'
p212
I214
sS'Earth Shock'
p213
I215
sS"Vol'jin"
p214
I216
sS'Mirror Entity'
p215
I217
sS'Preparation'
p216
I218
sS'Beckoner of Evil'
p217
I219
sS'Ancient Watcher'
p218
I220
sS'Edwin VanCleef'
p219
I221
sS'Ironbeak Owl'
p220
I222
sS'Kodorider'
p221
I223
sS'Sea Giant'
p222
I225
sS'Twilight Guardian'
p223
I226
sS'Ancestral Knowledge'
p224
I227
sS'Solemn Vigil'
p225
I228
sS'Nightbane Templar'
p226
I229
sS'Shadowflame'
p227
I230
sS'Shieldbearer'
p228
I231
sS'Shadow Word: Pain'
p229
I232
sS'Tunnel Trogg'
p230
I233
sS'Flamewaker'
p231
I234
sS'Dragonfire Potion'
p232
I235
sS"Y'Shaarj, Rage Unbound"
p233
I236
sS'Deadly Poison'
p234
I237
sS'Brawl'
p235
I238
sS'Mulch'
p236
I239
sS'Earthen Ring Farseer'
p237
I240
sS'Mountain Giant'
p238
I241
sS'Consecration'
p239
I242
sS'Gorillabot A-3'
p240
I243
sS'Old Murk-Eye'
p241
I393
sS'Antique Healbot'
p242
I244
sS'Clockwork Gnome'
p243
I245
sS'Kabal Talonpriest'
p244
I246
sS'Refreshment Vendor'
p245
I247
sS'Fiery War Axe'
p246
I248
sS'Varian Wrynn'
p247
I249
sS'Mana Tide Totem'
p248
I250
sS'Maelstrom Portal'
p249
I251
sS'Soulfire'
p250
I252
sS'Lord Jaraxxus'
p251
I253
sS'Lightbomb'
p252
I254
sS'Druid of the Claw'
p253
I255
sS'Webspinner'
p254
I256
sS'Mana Wyrm'
p255
I257
sS'Flame Lance'
p256
I258
sS'Demonwrath'
p257
I259
sS'Commanding Shout'
p258
I260
sS'Divine Strength'
p259
I40
sS'Ice Block'
p260
I262
sS'Shifting Shade'
p261
I263
sS'Unearthed Raptor'
p262
I264
sS'Deathlord'
p263
I266
sS"Twin Emperor Vek'lor"
p264
I267
sS'Wicked Witchdoctor'
p265
I268
sS'Fel Reaver'
p266
I269
sS'Crazed Worshipper'
p267
I270
sS'Rallying Blade'
p268
I271
sS'Thing from Below'
p269
I272
sS'Shadowcaster'
p270
I273
sS'Wisps of the Old Gods'
p271
I274
sS'Lava Burst'
p272
I275
sS'Heroic Strike'
p273
I276
sS'Harrison Jones'
p274
I277
sS'Silithid Swarmer'
p275
I278
sS'Burgle'
p276
I279
sS'Twilight Darkmender'
p277
I280
sS'Snipe'
p278
I281
sS'Bash'
p279
I282
sS'Anyfin Can Happen'
p280
I283
sS'Sylvanas Windrunner'
p281
I284
sS'Lightning Bolt'
p282
I285
sS'Voidcaller'
p283
I286
sS'Malygos'
p284
I288
sS'Excavated Evil'
p285
I289
sS'Small-Time Recruits'
p286
I290
sS"Disciple of C'Thun"
p287
I291
sS"N'Zoth, the Corruptor"
p288
I292
sS'Defias Ringleader'
p289
I293
sS'Unstable Portal'
p290
I294
sS'Shadow Rager'
p291
I298
sS'Stranglethorn Tiger'
p292
I296
sS'Coldlight Seer'
p293
I297
sS'Babbling Book'
p294
I188
sS'Animal Companion'
p295
I299
sS'Cold Blood'
p296
I300
sS'Zombie Chow'
p297
I301
sS'Coldlight Oracle'
p298
I302
sS'Carrion Grub'
p299
I303
sS'Moonglade Portal'
p300
I304
sS'Arcanite Reaper'
p301
I305
sS'Snowchugger'
p302
I385
sS'Quartermaster'
p303
I306
sS'Stolen Goods'
p304
I307
sS'Gorehowl'
p305
I386
sS'Upgrade!'
p306
I387
sS'Pint-Size Potion'
p307
I99
sS'Garrison Commander'
p308
I310
sS'Reliquary Seeker'
p309
I311
sS'Corrupted Healbot'
p310
I312
sS'Dire Wolf Alpha'
p311
I313
sS'Backstab'
p312
I488
sS'Ragnaros the Firelord'
p313
I314
sS'Primal Fusion'
p314
I315
sS'Powermace'
p315
I316
sS'Jade Chieftain'
p316
I317
sS'Bluegill Warrior'
p317
I318
sS'Hex'
p318
I319
sS'Dark Peddler'
p319
I320
sS'Enchanted Raven'
p320
I391
sS'Wyrmrest Agent'
p321
I321
sS'Avenge'
p322
I322
sS'Savannah Highmane'
p323
I323
sS'Tundra Rhino'
p324
I324
sS'Argent Squire'
p325
I325
sS'Twilight Whelp'
p326
I326
sS"Cabalist's Tome"
p327
I327
sS'Ethereal Peddler'
p328
I328
sS'Malkorok'
p329
I329
sS'Nerubian Egg'
p330
I330
sS'Jade Spirit'
p331
I331
sS'Savage Combatant'
p332
I309
sS'Light of the Naaru'
p333
I333
sS'Soul of the Forest'
p334
I334
sS'Knife Juggler'
p335
I335
sS'Loatheb'
p336
I336
sS'Ysera'
p337
I337
sS'Tiny Knight of Evil'
p338
I338
sS'Piloted Shredder'
p339
I339
sS'Mounted Raptor'
p340
I340
sS'Darkshire Councilman'
p341
I341
sS'Twilight Summoner'
p342
I342
sS'Rockbiter Weapon'
p343
I343
sS'Totem Golem'
p344
I344
sS'Arcane Giant'
p345
I345
sS'Volcanic Potion'
p346
I346
sS'Abusive Sergeant'
p347
I347
sS'Bloodhoof Brave'
p348
I348
sS'Eviscerate'
p349
I487
sS'Faceless Summoner'
p350
I100
sS'Truesilver Champion'
p351
I352
sS'Hallazeal the Ascended'
p352
I353
sS'Keeper of Uldaman'
p353
I354
sS'Powershot'
p354
I355
sS'Power Overwhelming'
p355
I356
sS'Revenge'
p356
I357
sS'Forbidden Ritual'
p357
I358
sS'Grimestreet Outfitter'
p358
I359
sS'Tirion Fordring'
p359
I360
sS'Ice Barrier'
p360
I153
sS'Arcane Intellect'
p361
I362
sS'Moonfire'
p362
I363
sS'Wolfrider'
p363
I364
sS'Unstable Ghoul'
p364
I365
sS'Master Jouster'
p365
I366
sS'Ancient Shieldbearer'
p366
I367
sS'Brann Bronzebeard'
p367
I368
sS'Earth Elemental'
p368
I369
sS'Arcane Blast'
p369
I370
sS'Potion of Madness'
p370
I371
sS'Slam'
p371
I372
sS'Forgotten Torch'
p372
I224
sS'Sprint'
p373
I374
sS'Mind Control Tech'
p374
I375
sS'Murloc Tidecaller'
p375
I376
sS"Death's Bite"
p376
I377
sS'Dark Cultist'
p377
I378
sS'Gnomish Inventor'
p378
I379
sS'Infested Tauren'
p379
I380
sS'Tomb Pillager'
p380
I381
sS'Alexstrasza'
p381
I382
sS'Huge Toad'
p382
I383
sS'Stalagg'
p383
I107
sS'Deathwing'
p384
I384
sS'Cenarius'
p385
I108
sS"Medivh's Valet"
p386
I308
sS'Spider Tank'
p387
I62
sS'Eydis Darkbane'
p388
I388
sS'Flamecannon'
p389
I389
sS'Drakonid Crusher'
p390
I390
sS'Silverware Golem'
p391
I332
sS'Secretkeeper'
p392
I392
sS'Haunted Creeper'
p393
I261
sS'Tracking'
p394
I394
sS'Lunar Visions'
p395
I119
sS'Shield Slam'
p396
I396
sS'Northshire Cleric'
p397
I397
sS"Kor'kron Elite"
p398
I398
sS'Possessed Villager'
p399
I399
sS'Feral Spirit'
p400
I400
sS'Imp Gang Boss'
p401
I401
sS'Thoughtsteal'
p402
I402
sS'Spellbreaker'
p403
I403
sS'Druid of the Flame'
p404
I404
sS'Holy Nova'
p405
I405
sS'Young Priestess'
p406
I406
sS'Coghammer'
p407
I407
sS'Priest of the Feast'
p408
I408
sS'Blood To Ichor'
p409
I409
sS'Confessor Paletress'
p410
I410
sS'Jade Blossom'
p411
I349
sS'Feugen'
p412
I412
sS'Jade Claws'
p413
I413
sS'Questing Adventurer'
p414
I414
sS'Jinyu Waterspeaker'
p415
I415
sS'Princess Huhuran'
p416
I416
sS'Sinister Strike'
p417
I417
sS'Lay on Hands'
p418
I418
sS'Alley Armorsmith'
p419
I419
sS'Shielded Minibot'
p420
I420
sS'Greater Healing Potion'
p421
I421
sS'Circle of Healing'
p422
I422
sS'Kun the Forgotten King'
p423
I423
sS'Repentance'
p424
I424
sS'Kill Command'
p425
I425
sS'Faceless Shambler'
p426
I34
sS'Wild Pyromancer'
p427
I427
sS'Nerubian Prophet'
p428
I428
sS'Mysterious Challenger'
p429
I429
sS'Blessing of Might'
p430
I430
sS'Firelands Portal'
p431
I38
sS'Bog Creeper'
p432
I432
sS'Healing Wave'
p433
I433
sS"Yogg-Saron, Hope's End"
p434
I54
sS'Injured Kvaldir'
p435
I435
sS'Flametongue Totem'
p436
I436
sS'Power Word: Shield'
p437
I437
sS'Noble Sacrifice'
p438
I438
sS"Sen'jin Shieldmasta"
p439
I439
sS'Medivh, the Guardian'
p440
I440
sS'Quick Shot'
p441
I441
sS'Kobold Geomancer'
p442
I442
sS'Sunfury Protector'
p443
I105
sS'Reno Jackson'
p444
I444
sS'Cat Trick'
p445
I445
sS'Klaxxi Amber-Weaver'
p446
I446
sS"Smuggler's Run"
p447
I447
sS'Infested Wolf'
p448
I448
sS'Chromaggus'
p449
I141
sS'Swipe'
p450
I450
sS'Molten Giant'
p451
I451
sS'Vilefin Inquisitor'
p452
I452
sS'Duplicate'
p453
I453
sS"Kel'Thuzad"
p454
I454
sS'Tinkertown Technician'
p455
I455
sS'Raven Idol'
p456
I456
sS'Arcane Shot'
p457
I411
sS"N'Zoth's First Mate"
p458
I458
sS'Cabal Shadow Priest'
p459
I459
sS'Snake Trap'
p460
I191
sS'Justicar Trueheart'
p461
I197
sS'Loot Hoarder'
p462
I462
sS'Darnassus Aspirant'
p463
I463
sS'Trogg Beastrager'
p464
I464
sS'Forbidden Flame'
p465
I465
sS'Shadow Madness'
p466
I466
sS'Bear Trap'
p467
I467
sS'Raza the Chained'
p468
I468
sS'Injured Blademaster'
p469
I469
sS'Aviana'
p470
I470
sS'Darkshire Librarian'
p471
I471
sS"Hunter's Mark"
p472
I472
sS'Ravaging Ghoul'
p473
I473
sS'Alleycat'
p474
I474
sS'Glaivezooka'
p475
I475
sS'Desert Camel'
p476
I476
sS'Twisting Nether'
p477
I477
sS'Blackwing Technician'
p478
I478
sS'Shrinkmeister'
p479
I479
sS'Ancestral Spirit'
p480
I127
sS'Mechwarper'
p481
I481
sS'Swashburglar'
p482
I482
sS'Seal of Champions'
p483
I483
sS'Living Roots'
p484
I484
sS'Imp-losion'
p485
I485
sS'Southsea Captain'
p486
I486
sS'Elise Starseeker'
p487
I350
sS'Aldor Peacekeeper'
p488
I361
sS'Dispatch Kodo'
p489
I489
sS'Flamestrike'
p490
I490
sS'Grommash Hellscream'
p491
I373
sS'Southsea Deckhand'
p492
I492
sS'Blessing of Kings'
p493
I493
sS'Forbidden Healing'
p494
I494
sS'Frost Nova'
p495
I495
sS'The Black Knight'
p496
I496
sS'Dragon Egg'
p497
I497
sS'Unleash the Hounds'
p498
I498
sS'Xaril, Poisoned Mind'
p499
I499
sS'Mortal Strike'
p500
I500
sS"Skycap'n Kragg"
p501
I501
sS'Grimscale Oracle'
p502
I502
sS"C'Thun's Chosen"
p503
I503
s.