(dp0
S'Warlock'
p1
(dp2
S"Mal'Ganis"
p3
I01
sS'Void Terror'
p4
I00
sS'Drain Life'
p5
I00
sS'Shadow Bolt'
p6
I00
sS'Crystalweaver'
p7
I00
sS'Blood Imp'
p8
I00
sS'Dark Peddler'
p9
I00
sS'Felguard'
p10
I00
sS'Imp-losion'
p11
I00
sS'Hellfire'
p12
I00
sS'Mistress of Pain'
p13
I00
sS'Corruption'
p14
I00
sS'Lord Jaraxxus'
p15
I01
sS'Dark Bargain'
p16
I00
sS'Imp Gang Boss'
p17
I00
sS'Voidwalker'
p18
I00
sS'Pit Lord'
p19
I00
sS'Power Overwhelming'
p20
I00
sS'Anima Golem'
p21
I00
sS'Bane of Doom'
p22
I00
sS'Wrathguard'
p23
I00
sS'Demonheart'
p24
I00
sS"Malchezaar's Imp"
p25
I00
sS'Fist of Jaraxxus'
p26
I00
sS'Forbidden Ritual'
p27
I00
sS'Abyssal Enforcer'
p28
I00
sS'Void Crusher'
p29
I00
sS'Voidcaller'
p30
I00
sS'Kabal Trafficker'
p31
I00
sS'Bloodfury Potion'
p32
I00
sS'Succubus'
p33
I00
sS'Sense Demons'
p34
I00
sS'Seadevil Stinger'
p35
I00
sS'Felfire Potion'
p36
I00
sS'Krul the Unshackled'
p37
I01
sS'Dread Infernal'
p38
I00
sS'Curse of Rafaam'
p39
I00
sS'Unlicensed Apothecary'
p40
I00
sS'Darkshire Councilman'
p41
I00
sS'Doomguard'
p42
I00
sS'Fearsome Doomguard'
p43
I00
sS'Flame Imp'
p44
I00
sS'Wilfred Fizzlebang'
p45
I01
sS'Demonfuse'
p46
I00
sS'Floating Watcher'
p47
I00
sS'Possessed Villager'
p48
I00
sS'Darkshire Librarian'
p49
I00
sS'Dreadsteed'
p50
I00
sS'Shadowflame'
p51
I00
sS'Mortal Coil'
p52
I00
sS'Usher of Souls'
p53
I00
sS"Gul'dan"
p54
I00
sS'Darkbomb'
p55
I00
sS'Silverware Golem'
p56
I00
sS'Fel Cannon'
p57
I00
sS"Cho'gall"
p58
I01
sS'Tiny Knight of Evil'
p59
I00
sS'Kara Kazham!'
p60
I00
sS'Reliquary Seeker'
p61
I00
sS'Sacrificial Pact'
p62
I00
sS'Summoning Portal'
p63
I00
sS'DOOM!'
p64
I00
sS'Renounce Darkness'
p65
I00
sS'Demonfire'
p66
I00
sS'Demonwrath'
p67
I00
sS'Twisting Nether'
p68
I00
sS'Spreading Madness'
p69
I00
sS'Blastcrystal Potion'
p70
I00
sS'Siphon Soul'
p71
I00
sS'Soulfire'
p72
I00
ssS'Warrior'
p73
(dp74
S'Bolster'
p75
I00
sS'Blood To Ichor'
p76
I00
sS'Public Defender'
p77
I00
sS'Cruel Taskmaster'
p78
I00
sS'Screwjank Clunker'
p79
I00
sS'Battle Rage'
p80
I00
sS'Bouncing Blade'
p81
I00
sS'Ironforge Portal'
p82
I00
sS'Armorsmith'
p83
I00
sS'Execute'
p84
I00
sS'Sea Reaver'
p85
I00
sS'Crush'
p86
I00
sS'Charge'
p87
I00
sS'Ogre Warmaul'
p88
I00
sS'Arathi Weaponsmith'
p89
I00
sS'Warsong Commander'
p90
I00
sS'Shieldmaiden'
p91
I00
sS'Cursed Blade'
p92
I00
sS'Blood Warriors'
p93
I00
sS'Magni Bronzebeard'
p94
I00
sS'Gorehowl'
p95
I00
sS"N'Zoth's First Mate"
p96
I00
sS'Upgrade!'
p97
I00
sS'Brawl'
p98
I00
sS'Heroic Strike'
p99
I00
sS'Revenge'
p100
I00
sS'Obsidian Destroyer'
p101
I00
sS'Varian Wrynn'
p102
I01
sS"King's Defender"
p103
I00
sS'Malkorok'
p104
I01
sS"Fool's Bane"
p105
I00
sS'Inner Rage'
p106
I00
sS'Tentacles for Arms'
p107
I00
sS'Fierce Monkey'
p108
I00
sS'Grommash Hellscream'
p109
I01
sS'Bash'
p110
I00
sS'Bloodhoof Brave'
p111
I00
sS'Cleave'
p112
I00
sS'Arcanite Reaper'
p113
I00
sS'Fiery War Axe'
p114
I00
sS'Rampage'
p115
I00
sS'Iron Juggernaut'
p116
I01
sS'Sparring Partner'
p117
I00
sS"Alexstrasza's Champion"
p118
I00
sS'Stolen Goods'
p119
I00
sS'Shield Slam'
p120
I00
sS"Kor'kron Elite"
p121
I00
sS'Siege Engine'
p122
I00
sS'Frothing Berserker'
p123
I00
sS'Ancient Shieldbearer'
p124
I00
sS'Mortal Strike'
p125
I00
sS'I Know a Guy'
p126
I00
sS'Whirlwind'
p127
I00
sS'Shield Block'
p128
I00
sS'Brass Knuckles'
p129
I00
sS'Grimestreet Pawnbroker'
p130
I00
sS'Warbot'
p131
I00
sS'Ravaging Ghoul'
p132
I00
sS'Sleep with the Fishes'
p133
I00
sS'Protect the King!'
p134
I00
sS'Axe Flinger'
p135
I00
sS'Garrosh Hellscream'
p136
I00
sS'Alley Armorsmith'
p137
I00
sS'Magnataur Alpha'
p138
I00
sS'Bloodsail Cultist'
p139
I00
sS'Slam'
p140
I00
sS'Orgrimmar Aspirant'
p141
I00
sS'Hobart Grapplehammer'
p142
I01
sS'Commanding Shout'
p143
I00
sS'Grimy Gadgeteer'
p144
I00
sS"Death's Bite"
p145
I00
ssS'Paladin'
p146
(dp147
S'Nightbane Templar'
p148
I00
sS'Holy Wrath'
p149
I00
sS'Hammer of Wrath'
p150
I00
sS'Ragnaros, Lightlord'
p151
I01
sS"Smuggler's Run"
p152
I00
sS'Sacred Trial'
p153
I00
sS'Meanstreet Marshal'
p154
I00
sS'Lay on Hands'
p155
I00
sS'Stand Against Darkness'
p156
I00
sS'Coghammer'
p157
I00
sS'Vilefin Inquisitor'
p158
I00
sS'Tuskarr Jouster'
p159
I00
sS'Getaway Kodo'
p160
I00
sS'Avenge'
p161
I00
sS'Seal of Champions'
p162
I00
sS'Mysterious Challenger'
p163
I00
sS'Wickerflame Burnbristle'
p164
I01
sS'Shielded Minibot'
p165
I00
sS'Sword of Justice'
p166
I00
sS'Aldor Peacekeeper'
p167
I00
sS'Truesilver Champion'
p168
I00
sS'Anyfin Can Happen'
p169
I00
sS'Keeper of Uldaman'
p170
I00
sS'Divine Favor'
p171
I00
sS'Hand of Protection'
p172
I00
sS'Eadric the Pure'
p173
I01
sS'Repentance'
p174
I00
sS'Consecration'
p175
I00
sS'A Light in the Darkness'
p176
I00
sS'Lady Liadrin'
p177
I00
sS'Selfless Hero'
p178
I00
sS'Warhorse Trainer'
p179
I00
sS'Enter the Coliseum'
p180
I00
sS'Humility'
p181
I00
sS'Grimestreet Outfitter'
p182
I00
sS'Tirion Fordring'
p183
I01
sS'Grimestreet Protector'
p184
I00
sS'Argent Protector'
p185
I00
sS'Murloc Knight'
p186
I00
sS'Silvermoon Portal'
p187
I00
sS'Eye for an Eye'
p188
I00
sS'Quartermaster'
p189
I00
sS'Equality'
p190
I00
sS'Redemption'
p191
I00
sS'Grimscale Chum'
p192
I00
sS'Blessing of Kings'
p193
I00
sS'Cobalt Guardian'
p194
I00
sS'Ivory Knight'
p195
I00
sS'Seal of Light'
p196
I00
sS'Forbidden Healing'
p197
I00
sS"Light's Justice"
p198
I00
sS'Argent Lance'
p199
I00
sS'Grimestreet Enforcer'
p200
I00
sS'Steward of Darkshire'
p201
I00
sS'Scarlet Purifier'
p202
I00
sS'Small-Time Recruits'
p203
I00
sS'Competitive Spirit'
p204
I00
sS'Avenging Wrath'
p205
I00
sS'Bolvar Fordragon'
p206
I01
sS'Noble Sacrifice'
p207
I00
sS'Blessing of Wisdom'
p208
I00
sS'Rallying Blade'
p209
I00
sS'Uther Lightbringer'
p210
I00
sS'Guardian of Kings'
p211
I00
sS'Dragon Consort'
p212
I00
sS'Blessing of Might'
p213
I00
sS'Blessed Champion'
p214
I00
sS'Holy Light'
p215
I00
sS'Solemn Vigil'
p216
I00
sS'Muster for Battle'
p217
I00
sS'Divine Strength'
p218
I00
ssS'Priest'
p219
(dp220
S'Dark Cultist'
p221
I00
sS'Shifting Shade'
p222
I00
sS'Lightspawn'
p223
I00
sS'Confessor Paletress'
p224
I01
sS'Shadow Madness'
p225
I00
sS'Onyx Bishop'
p226
I00
sS'Spawn of Shadows'
p227
I00
sS"Vol'jin"
p228
I01
sS'Auchenai Soulpriest'
p229
I00
sS'Darkshire Alchemist'
p230
I00
sS'Drakonid Operative'
p231
I00
sS'Embrace the Shadow'
p232
I00
sS'Inner Fire'
p233
I00
sS'Shadow Word: Pain'
p234
I00
sS'Anduin Wrynn'
p235
I00
sS'Greater Healing Potion'
p236
I00
sS'Twilight Whelp'
p237
I00
sS'Raza the Chained'
p238
I01
sS'Upgraded Repair Bot'
p239
I00
sS'Circle of Healing'
p240
I00
sS'Temple Enforcer'
p241
I00
sS'Herald Volazj'
p242
I01
sS'Mind Control'
p243
I00
sS'Entomb'
p244
I00
sS'Hooded Acolyte'
p245
I00
sS'Kabal Songstealer'
p246
I00
sS'Holy Champion'
p247
I00
sS'Shadow Word: Horror'
p248
I00
sS'Twilight Darkmender'
p249
I00
sS'Dragonfire Potion'
p250
I00
sS'Forbidden Shaping'
p251
I00
sS'Holy Nova'
p252
I00
sS'Tyrande Whisperwind'
p253
I00
sS'Kabal Talonpriest'
p254
I00
sS'Convert'
p255
I00
sS'Light of the Naaru'
p256
I00
sS'Power Word: Tentacles'
p257
I00
sS'Mass Dispel'
p258
I00
sS"Velen's Chosen"
p259
I00
sS'Purify'
p260
I00
sS'Shadowform'
p261
I00
sS'Lightwell'
p262
I00
sS'Museum Curator'
p263
I00
sS'Northshire Cleric'
p264
I00
sS'Shadow Word: Death'
p265
I00
sS'Flash Heal'
p266
I00
sS'Mind Vision'
p267
I00
sS'Thoughtsteal'
p268
I00
sS'Excavated Evil'
p269
I00
sS'Silence'
p270
I00
sS'Lightbomb'
p271
I00
sS'Pint-Size Potion'
p272
I00
sS'Resurrect'
p273
I00
sS'Power Word: Shield'
p274
I00
sS'Shrinkmeister'
p275
I00
sS'Mana Geode'
p276
I00
sS'Mind Blast'
p277
I00
sS'Cabal Shadow Priest'
p278
I00
sS'Confuse'
p279
I00
sS'Shadowbomber'
p280
I00
sS'Mindgames'
p281
I00
sS'Shadowboxer'
p282
I00
sS'Potion of Madness'
p283
I00
sS'Divine Spirit'
p284
I00
sS'Priest of the Feast'
p285
I00
sS'Holy Smite'
p286
I00
sS'Wyrmrest Agent'
p287
I00
sS'Holy Fire'
p288
I00
sS'Power Word: Glory'
p289
I00
sS'Shadowfiend'
p290
I00
sS'Prophet Velen'
p291
I01
ssS'Hunter'
p292
(dp293
S'Cat Trick'
p294
I00
sS'King of Beasts'
p295
I00
sS'Snake Trap'
p296
I00
sS'Starving Buzzard'
p297
I00
sS'Arcane Shot'
p298
I00
sS'King Krush'
p299
I01
sS'Explosive Trap'
p300
I00
sS'Infested Wolf'
p301
I00
sS'On the Hunt'
p302
I00
sS"Explorer's Hat"
p303
I00
sS'Acidmaw'
p304
I01
sS'Multi-Shot'
p305
I00
sS'Cloaked Huntress'
p306
I00
sS'Alleria Windrunner'
p307
I00
sS'Desert Camel'
p308
I00
sS'Explosive Shot'
p309
I00
sS'Rat Pack'
p310
I00
sS'Piranha Launcher'
p311
I00
sS'Savannah Highmane'
p312
I00
sS'Tundra Rhino'
p313
I00
sS'Core Rager'
p314
I00
sS'Animal Companion'
p315
I00
sS'Stablemaster'
p316
I00
sS'Ram Wrangler'
p317
I00
sS'Powershot'
p318
I00
sS"Smuggler's Crate"
p319
I00
sS'Forlorn Stalker'
p320
I00
sS'Kill Command'
p321
I00
sS'Misdirection'
p322
I00
sS'Ball of Spiders'
p323
I00
sS'Giant Sand Worm'
p324
I00
sS'Shaky Zipgunner'
p325
I00
sS'Metaltooth Leaper'
p326
I00
sS'Snipe'
p327
I00
sS'Feign Death'
p328
I00
sS'Houndmaster'
p329
I00
sS'Brave Archer'
p330
I00
sS'Bear Trap'
p331
I00
sS'Tracking'
p332
I00
sS'Rexxar'
p333
I00
sS"King's Elekk"
p334
I00
sS'Knuckles'
p335
I01
sS"Gladiator's Longbow"
p336
I00
sS'Flare'
p337
I00
sS'Kindly Grandmother'
p338
I00
sS'Timber Wolf'
p339
I00
sS'Steamwheedle Sniper'
p340
I00
sS'Trogg Beastrager'
p341
I00
sS'Fiery Bat'
p342
I00
sS'Dart Trap'
p343
I00
sS'Princess Huhuran'
p344
I01
sS'Dispatch Kodo'
p345
I00
sS"Hunter's Mark"
p346
I00
sS'Carrion Grub'
p347
I00
sS'Unleash the Hounds'
p348
I00
sS'Lock and Load'
p349
I00
sS'Deadly Shot'
p350
I00
sS'Scavenging Hyena'
p351
I00
sS"Gahz'rilla"
p352
I01
sS'Freezing Trap'
p353
I00
sS'Alleycat'
p354
I00
sS'Glaivezooka'
p355
I00
sS'Quick Shot'
p356
I00
sS'Hidden Cache'
p357
I00
sS'Webspinner'
p358
I00
sS'Eaglehorn Bow'
p359
I00
sS'Call Pet'
p360
I00
sS'Call of the Wild'
p361
I00
sS'Infest'
p362
I00
sS'Dreadscale'
p363
I01
sS'Bestial Wrath'
p364
I00
sS'Cobra Shot'
p365
I00
ssS'Druid'
p366
(dp367
S'Dark Arakkoa'
p368
I00
sS'Grove Tender'
p369
I00
sS'Power of the Wild'
p370
I00
sS'Wrath'
p371
I00
sS'Malfurion Stormrage'
p372
I00
sS'Dark Wispers'
p373
I00
sS'Bite'
p374
I00
sS'Swipe'
p375
I00
sS'Living Roots'
p376
I00
sS'Savage Roar'
p377
I00
sS'Druid of the Fang'
p378
I00
sS'Recycle'
p379
I00
sS'Klaxxi Amber-Weaver'
p380
I00
sS'Kun the Forgotten King'
p381
I01
sS'Ironbark Protector'
p382
I00
sS'Ancient of Lore'
p383
I00
sS'Raven Idol'
p384
I00
sS'Jade Blossom'
p385
I00
sS'Pilfered Power'
p386
I00
sS'Jade Idol'
p387
I00
sS'Nourish'
p388
I00
sS'Forbidden Ancient'
p389
I00
sS'Wisps of the Old Gods'
p390
I00
sS'Mark of Nature'
p391
I00
sS"Mark of Y'Shaarj"
p392
I00
sS'Mulch'
p393
I00
sS'Innervate'
p394
I00
sS'Mech-Bear-Cat'
p395
I00
sS'Enchanted Raven'
p396
I00
sS'Astral Communion'
p397
I00
sS'Wild Growth'
p398
I00
sS'Darnassus Aspirant'
p399
I00
sS'Addled Grizzly'
p400
I00
sS'Menagerie Warden'
p401
I00
sS'Keeper of the Grove'
p402
I00
sS'Moonfire'
p403
I00
sS'Moonglade Portal'
p404
I00
sS'Poison Seeds'
p405
I00
sS'Cenarius'
p406
I01
sS'Savagery'
p407
I00
sS'Jungle Moonkin'
p408
I00
sS'Anodized Robo Cub'
p409
I00
sS'Soul of the Forest'
p410
I00
sS'Ancient of War'
p411
I00
sS'Force of Nature'
p412
I00
sS'Aviana'
p413
I01
sS'Tree of Life'
p414
I00
sS'Claw'
p415
I00
sS'Healing Touch'
p416
I00
sS'Knight of the Wild'
p417
I00
sS'Jade Behemoth'
p418
I00
sS'Savage Combatant'
p419
I00
sS'Naturalize'
p420
I00
sS'Starfall'
p421
I00
sS'Starfire'
p422
I00
sS'Druid of the Flame'
p423
I00
sS'Feral Rage'
p424
I00
sS'Druid of the Claw'
p425
I00
sS'Mark of the Lotus'
p426
I00
sS'Lunar Visions'
p427
I00
sS'Mark of the Wild'
p428
I00
sS'Volcanic Lumberer'
p429
I00
sS'Mounted Raptor'
p430
I00
sS'Druid of the Saber'
p431
I00
sS'Fandral Staghelm'
p432
I01
sS'Wildwalker'
p433
I00
sS'Malorne'
p434
I01
sS'Celestial Dreamer'
p435
I00
sS'Mire Keeper'
p436
I00
sS'Virmen Sensei'
p437
I00
ssS'Neutral'
p438
(dp439
S'Doomcaller'
p440
I00
sS'Zoobot'
p441
I00
sS'Salty Dog'
p442
I00
sS"Captain's Parrot"
p443
I00
sS'Blood Knight'
p444
I00
sS'Amani Berserker'
p445
I00
sS'Dragonling Mechanic'
p446
I00
sS"Light's Champion"
p447
I00
sS'Stormpike Commando'
p448
I00
sS'Moat Lurker'
p449
I00
sS'Sergeant Sally'
p450
I01
sS'The Curator'
p451
I01
sS'Shattered Sun Cleric'
p452
I00
sS'Undertaker'
p453
I00
sS'Scaled Nightmare'
p454
I00
sS'Volcanic Drake'
p455
I00
sS'Toshley'
p456
I01
sS'Jungle Panther'
p457
I00
sS'Faceless Manipulator'
p458
I00
sS'Gnomish Experimenter'
p459
I00
sS'Booty Bay Bodyguard'
p460
I00
sS'Gormok the Impaler'
p461
I01
sS'Violet Teacher'
p462
I00
sS'Lightwarden'
p463
I00
sS'Mini-Mage'
p464
I00
sS'Tournament Medic'
p465
I00
sS'Windfury Harpy'
p466
I00
sS'Book Wyrm'
p467
I00
sS'Arcane Anomaly'
p468
I00
sS'Dark Iron Dwarf'
p469
I00
sS'Anubisath Sentinel'
p470
I00
sS'Shade of Naxxramas'
p471
I00
sS"Nerub'ar Weblord"
p472
I00
sS'Clockwork Knight'
p473
I00
sS'Stoneskin Gargoyle'
p474
I00
sS'Hogger, Doom of Elwynn'
p475
I01
sS'Spectral Knight'
p476
I00
sS'Rend Blackhand'
p477
I01
sS'Mukla, Tyrant of the Vale'
p478
I01
sS'Novice Engineer'
p479
I00
sS'Illuminator'
p480
I00
sS'Grook Fu Master'
p481
I00
sS'Bloodsail Corsair'
p482
I00
sS'Madder Bomber'
p483
I00
sS'Defender of Argus'
p484
I00
sS'Arcane Giant'
p485
I00
sS'Foe Reaper 4000'
p486
I01
sS'Master Swordsmith'
p487
I00
sS'Worgen Infiltrator'
p488
I00
sS'Spider Tank'
p489
I00
sS'Aya Blackpaw'
p490
I01
sS'Grimestreet Smuggler'
p491
I00
sS'Majordomo Executus'
p492
I01
sS"Ship's Cannon"
p493
I00
sS'Baron Geddon'
p494
I01
sS'Chillwind Yeti'
p495
I00
sS'Nozdormu'
p496
I01
sS'Eerie Statue'
p497
I00
sS'Mistress of Mixtures'
p498
I00
sS'Summoning Stone'
p499
I00
sS'Crowd Favorite'
p500
I00
sS'Ancient Mage'
p501
I00
sS"Mogor's Champion"
p502
I00
sS"C'Thun"
p503
I01
sS'Goblin Sapper'
p504
I00
sS'Piloted Sky Golem'
p505
I00
sS"Skycap'n Kragg"
p506
I01
sS'Bolf Ramshield'
p507
I01
sS'Finja, the Flying Star'
p508
I01
sS'Cult Master'
p509
I00
sS'Big Game Hunter'
p510
I00
sS'Silent Knight'
p511
I00
sS'Gelbin Mekkatorque'
p512
I01
sS'Mad Bomber'
p513
I00
sS'Twilight Elder'
p514
I00
sS'Icehowl'
p515
I01
sS'Murloc Tidehunter'
p516
I00
sS'Doomsayer'
p517
I00
sS'Hired Gun'
p518
I00
sS'Street Trickster'
p519
I00
sS'Echoing Ooze'
p520
I00
sS'Maexxna'
p521
I01
sS'Onyxia'
p522
I01
sS'Acolyte of Pain'
p523
I00
sS'Hozen Healer'
p524
I00
sS'Elven Archer'
p525
I00
sS'Troggzor the Earthinator'
p526
I01
sS'Midnight Drake'
p527
I00
sS'Alarm-o-Bot'
p528
I00
sS'Archmage'
p529
I00
sS'Silver Hand Knight'
p530
I00
sS'Goldshire Footman'
p531
I00
sS'Patches the Pirate'
p532
I01
sS'Daring Reporter'
p533
I00
sS'Mayor Noggenfogger'
p534
I01
sS'Argent Horserider'
p535
I00
sS'Stalagg'
p536
I01
sS'Chillmaw'
p537
I01
sS'Murloc Tinyfin'
p538
I00
sS'Cogmaster'
p539
I00
sS'Backstreet Leper'
p540
I00
sS'Saboteur'
p541
I00
sS'Reno Jackson'
p542
I01
sS'Dalaran Mage'
p543
I00
sS'Grim Patron'
p544
I00
sS'Tanaris Hogchopper'
p545
I00
sS'Ogre Brute'
p546
I00
sS'Hogger'
p547
I01
sS'Haunted Creeper'
p548
I00
sS'Sludge Belcher'
p549
I00
sS'Lotus Agents'
p550
I00
sS'Corrupted Seer'
p551
I00
sS'Annoy-o-Tron'
p552
I00
sS'Acidic Swamp Ooze'
p553
I00
sS'Jeeves'
p554
I00
sS'Doppelgangster'
p555
I00
sS'Stonesplinter Trogg'
p556
I00
sS'Barnes'
p557
I01
sS'Recruiter'
p558
I00
sS'Netherspite Historian'
p559
I00
sS'Coliseum Manager'
p560
I00
sS'Duskboar'
p561
I00
sS'Puddlestomper'
p562
I00
sS'Arch-Thief Rafaam'
p563
I01
sS'Dirty Rat'
p564
I00
sS'Aberrant Berserker'
p565
I00
sS'Darkspeaker'
p566
I00
sS'Eater of Secrets'
p567
I00
sS'Moroes'
p568
I01
sS'Azure Drake'
p569
I00
sS'Friendly Bartender'
p570
I00
sS'Baron Rivendare'
p571
I01
sS'Sir Finley Mrrgglton'
p572
I01
sS'Twisted Worgen'
p573
I00
sS'Illidan Stormrage'
p574
I01
sS'Naga Sea Witch'
p575
I00
sS'Cairne Bloodhoof'
p576
I01
sS'War Golem'
p577
I00
sS'Darkscale Healer'
p578
I00
sS'Gnomeregan Infantry'
p579
I00
sS'Faerie Dragon'
p580
I00
sS'Abomination'
p581
I00
sS'Ironforge Rifleman'
p582
I00
sS'Stampeding Kodo'
p583
I00
sS'Kooky Chemist'
p584
I00
sS'Pit Fighter'
p585
I00
sS'Bloodmage Thalnos'
p586
I01
sS'Small-Time Buccaneer'
p587
I00
sS'Dread Corsair'
p588
I00
sS'Ironfur Grizzly'
p589
I00
sS'Bomb Lobber'
p590
I00
sS'Zealous Initiate'
p591
I00
sS'Gazlowe'
p592
I01
sS'Kezan Mystic'
p593
I00
sS'Lance Carrier'
p594
I00
sS'Skeram Cultist'
p595
I00
sS'Nefarian'
p596
I01
sS'Toxic Sewer Ooze'
p597
I00
sS'Blackwing Corruptor'
p598
I00
sS'Venture Co. Mercenary'
p599
I00
sS'Boulderfist Ogre'
p600
I00
sS'Burly Rockjaw Trogg'
p601
I00
sS'Ice Rager'
p602
I00
sS'Grimestreet Informant'
p603
I00
sS'Bilefin Tidehunter'
p604
I00
sS'Kabal Courier'
p605
I00
sS'Harvest Golem'
p606
I00
sS'Blackwater Pirate'
p607
I00
sS'Defias Cleaner'
p608
I00
sS'Cult Apothecary'
p609
I00
sS'Imp Master'
p610
I00
sS'Captured Jormungar'
p611
I00
sS'Emperor Cobra'
p612
I00
sS'Gadgetzan Auctioneer'
p613
I00
sS'Ragnaros the Firelord'
p614
I01
sS'Gadgetzan Socialite'
p615
I00
sS'Sunwalker'
p616
I00
sS'The Skeleton Knight'
p617
I01
sS'Demolisher'
p618
I00
sS'Hobgoblin'
p619
I00
sS'Argent Commander'
p620
I00
sS'Backroom Bouncer'
p621
I00
sS'Priestess of Elune'
p622
I00
sS'Mad Scientist'
p623
I00
sS'Voodoo Doctor'
p624
I00
sS'Flame Juggler'
p625
I00
sS'Pantry Spider'
p626
I00
sS'Tinkmaster Overspark'
p627
I01
sS'Bloodsail Raider'
p628
I00
sS'Stormwind Knight'
p629
I00
sS'Arcanosmith'
p630
I00
sS'Auctionmaster Beardo'
p631
I01
sS'Nexus-Champion Saraad'
p632
I01
sS'Bloodfen Raptor'
p633
I00
sS'Frostwolf Grunt'
p634
I00
sS'Kazakus'
p635
I01
sS'Gnomish Inventor'
p636
I00
sS'Blood of The Ancient One'
p637
I00
sS'Refreshment Vendor'
p638
I00
sS'Raid Leader'
p639
I00
sS'Argent Watchman'
p640
I00
sS'Beckoner of Evil'
p641
I00
sS'Ancient Watcher'
p642
I00
sS'Evil Heckler'
p643
I00
sS'Ironbeak Owl'
p644
I00
sS'Kodorider'
p645
I00
sS'Sea Giant'
p646
I00
sS'Twilight Guardian'
p647
I00
sS'Nat Pagle'
p648
I01
sS'Maiden of the Lake'
p649
I00
sS'Fel Orc Soulfiend'
p650
I00
sS'Magma Rager'
p651
I00
sS'Shieldbearer'
p652
I00
sS'Leeroy Jenkins'
p653
I01
sS"Lil' Exorcist"
p654
I00
sS'Wolfrider'
p655
I00
sS'Blingtron 3000'
p656
I01
sS'Murloc Tidecaller'
p657
I00
sS'Earthen Ring Farseer'
p658
I00
sS'Mogor the Ogre'
p659
I01
sS"Sneed's Old Shredder"
p660
I01
sS'Gorillabot A-3'
p661
I00
sS'Antique Healbot'
p662
I00
sS'Clockwork Gnome'
p663
I00
sS'Faceless Shambler'
p664
I00
sS'Master of Ceremonies'
p665
I00
sS'Wisp'
p666
I00
sS'King Mukla'
p667
I01
sS'Gilblin Stalker'
p668
I00
sS'Silvermoon Guardian'
p669
I00
sS'Tauren Warrior'
p670
I00
sS'Stonetusk Boar'
p671
I00
sS'Angry Chicken'
p672
I00
sS"Y'Shaarj, Rage Unbound"
p673
I01
sS'Sideshow Spelleater'
p674
I00
sS'Deathlord'
p675
I00
sS"Twin Emperor Vek'lor"
p676
I01
sS'Fel Reaver'
p677
I00
sS'Crazed Worshipper'
p678
I00
sS'Bomb Squad'
p679
I00
sS'Prince Malchezaar'
p680
I01
sS'Menagerie Magician'
p681
I00
sS'Thrallmar Farseer'
p682
I00
sS'Harrison Jones'
p683
I01
sS'Silithid Swarmer'
p684
I00
sS'Sylvanas Windrunner'
p685
I01
sS'Weasel Tunneler'
p686
I00
sS'Violet Illusionist'
p687
I00
sS'Malygos'
p688
I01
sS'Arcane Golem'
p689
I00
sS'Shifter Zerus'
p690
I01
sS"Disciple of C'Thun"
p691
I00
sS'Madam Goya'
p692
I01
sS"N'Zoth, the Corruptor"
p693
I01
sS'Fight Promoter'
p694
I00
sS'Tournament Attendee'
p695
I00
sS'Captain Greenskin'
p696
I01
sS'Stranglethorn Tiger'
p697
I00
sS'Lorewalker Cho'
p698
I01
sS'Murloc Raider'
p699
I00
sS'Blubber Baron'
p700
I00
sS'Lord of the Arena'
p701
I00
sS'Nat, the Darkfisher'
p702
I01
sS'Kvaldir Raider'
p703
I00
sS'Coldlight Seer'
p704
I00
sS'North Sea Kraken'
p705
I00
sS'Deathwing, Dragonlord'
p706
I01
sS'Lost Tallstrider'
p707
I00
sS'Grotesque Dragonhawk'
p708
I00
sS'Zombie Chow'
p709
I00
sS'Coldlight Oracle'
p710
I00
sS'Dragonkin Sorcerer'
p711
I00
sS'Mana Wraith'
p712
I00
sS'Micro Machine'
p713
I00
sS'Garrison Commander'
p714
I00
sS'Silver Hand Regent'
p715
I00
sS'Corrupted Healbot'
p716
I00
sS'Dire Wolf Alpha'
p717
I00
sS"Don Han'Cho"
p718
I01
sS'Dragonhawk Rider'
p719
I00
sS'Youthful Brewmaster'
p720
I00
sS'Bluegill Warrior'
p721
I00
sS'Ancient Brewmaster'
p722
I00
sS'Fencing Coach'
p723
I00
sS'Grand Crusader'
p724
I00
sS'Force-Tank MAX'
p725
I00
sS'Argent Squire'
p726
I00
sS'Mekgineer Thermaplugg'
p727
I01
sS'Recombobulator'
p728
I00
sS'Nerubian Egg'
p729
I00
sS'Jade Spirit'
p730
I00
sS'Knife Juggler'
p731
I00
sS'Loatheb'
p732
I01
sS'Wobbling Runts'
p733
I00
sS"Mukla's Champion"
p734
I00
sS'Ysera'
p735
I01
sS'Armored Warhorse'
p736
I00
sS'Piloted Shredder'
p737
I00
sS'Djinni of Zephyrs'
p738
I00
sS'Twilight Summoner'
p739
I00
sS'Gruul'
p740
I01
sS'Oasis Snapjaw'
p741
I00
sS'The Boogeymonster'
p742
I01
sS'Streetwise Investigator'
p743
I00
sS'Abusive Sergeant'
p744
I00
sS'Frost Elemental'
p745
I00
sS'Red Mana Wyrm'
p746
I00
sS'Dr. Boom'
p747
I01
sS'Eldritch Horror'
p748
I00
sS'Enhance-o Mechano'
p749
I00
sS'Ancient Shade'
p750
I00
sS'Silverback Patriarch'
p751
I00
sS'Genzo, the Shark'
p752
I01
sS'Squirming Tentacle'
p753
I00
sS'Polluted Hoarder'
p754
I00
sS'Second-Rate Bruiser'
p755
I00
sS'Soggoth the Slitherer'
p756
I01
sS'Tomb Spider'
p757
I00
sS'Leatherclad Hogleader'
p758
I00
sS'Unstable Ghoul'
p759
I00
sS'Master Jouster'
p760
I00
sS'Brann Bronzebeard'
p761
I01
sS'The Beast'
p762
I01
sS'Nightblade'
p763
I00
sS'Naga Corsair'
p764
I00
sS'Evolved Kobold'
p765
I00
sS'Mind Control Tech'
p766
I00
sS'Fen Creeper'
p767
I00
sS'Infested Tauren'
p768
I00
sS'Alexstrasza'
p769
I01
sS'Huge Toad'
p770
I00
sS'Mana Addict'
p771
I00
sS'Hungry Crab'
p772
I00
sS'Hungry Dragon'
p773
I00
sS'Deathwing'
p774
I01
sS'Psych-o-Tron'
p775
I00
sS'Wrathion'
p776
I01
sS'Scarlet Crusader'
p777
I00
sS'Leper Gnome'
p778
I00
sS'Jeweled Scarab'
p779
I00
sS'Eydis Darkbane'
p780
I01
sS'Ravenholdt Assassin'
p781
I00
sS'Drakonid Crusher'
p782
I00
sS'Frostwolf Warlord'
p783
I00
sS'Secretkeeper'
p784
I00
sS'Big-Time Racketeer'
p785
I00
sS"Yogg-Saron, Hope's End"
p786
I01
sS'Faceless Behemoth'
p787
I00
sS'Old Murk-Eye'
p788
I01
sS'Mountain Giant'
p789
I00
sS'Raging Worgen'
p790
I00
sS'Spellbreaker'
p791
I00
sS'Frost Giant'
p792
I00
sS'Young Priestess'
p793
I00
sS'Wind-up Burglebot'
p794
I00
sS'Validated Doomsayer'
p795
I00
sS'Feugen'
p796
I01
sS'Questing Adventurer'
p797
I00
sS'Emperor Thaurissan'
p798
I01
sS'Mechanical Yeti'
p799
I00
sS'Flying Machine'
p800
I00
sS'Murloc Warleader'
p801
I00
sS'Wild Pyromancer'
p802
I00
sS'Frigid Snobold'
p803
I00
sS'Nerubian Prophet'
p804
I00
sS'Clockwork Giant'
p805
I00
sS'Bog Creeper'
p806
I00
sS'Twilight Drake'
p807
I00
sS'Injured Kvaldir'
p808
I00
sS'Twilight Geomancer'
p809
I00
sS'Target Dummy'
p810
I00
sS'Fjola Lightbane'
p811
I01
sS"Sen'jin Shieldmasta"
p812
I00
sS'Medivh, the Guardian'
p813
I01
sS'Millhouse Manastorm'
p814
I01
sS'Kobold Geomancer'
p815
I00
sS'Sunfury Protector'
p816
I00
sS"Mimiron's Head"
p817
I01
sS'Ogre Magi'
p818
I00
sS'Wailing Soul'
p819
I00
sS"Am'gam Rager"
p820
I00
sS'Chromaggus'
p821
I01
sS'Molten Giant'
p822
I00
sS'Fossilized Devilsaur'
p823
I00
sS"Kel'Thuzad"
p824
I01
sS'Tinkertown Technician'
p825
I00
sS'Gadgetzan Jouster'
p826
I00
sS'Boneguard Lieutenant'
p827
I00
sS'Reckless Rocketeer'
p828
I00
sS'Justicar Trueheart'
p829
I01
sS'Junkbot'
p830
I00
sS'Elite Tauren Chieftain'
p831
I01
sS'Loot Hoarder'
p832
I00
sS"Tentacle of N'Zoth"
p833
I00
sS"Mogu'shan Warden"
p834
I00
sS'Arcane Nullifier X-21'
p835
I00
sS'Ancient Harbinger'
p836
I00
sS'River Crocolisk'
p837
I00
sS'Injured Blademaster'
p838
I00
sS'Hemet Nesingwary'
p839
I01
sS'Dancing Swords'
p840
I00
sS'Core Hound'
p841
I00
sS'Spiteful Smith'
p842
I00
sS'Gurubashi Berserker'
p843
I00
sS'Blackwing Technician'
p844
I00
sS'Mechwarper'
p845
I00
sS'Explosive Sheep'
p846
I00
sS'Southsea Captain'
p847
I00
sS'Ancient of Blossoms'
p848
I00
sS'Elise Starseeker'
p849
I01
sS'Cyclopian Horror'
p850
I00
sS'Avian Watcher'
p851
I00
sS'Razorfen Hunter'
p852
I00
sS'Southsea Deckhand'
p853
I00
sS'Spiked Hogrider'
p854
I00
sS'Flesheating Ghoul'
p855
I00
sS'Young Dragonhawk'
p856
I00
sS'Crazed Alchemist'
p857
I00
sS'Stormwind Champion'
p858
I00
sS'Runic Egg'
p859
I00
sS'Blowgill Sniper'
p860
I00
sS'Lowly Squire'
p861
I00
sS'Pompous Thespian'
p862
I00
sS'The Black Knight'
p863
I01
sS"Spawn of N'Zoth"
p864
I00
sS'Dragon Egg'
p865
I00
sS'Pint-Sized Summoner'
p866
I00
sS'Kabal Chemist'
p867
I00
sS'Grimscale Oracle'
p868
I00
sS"C'Thun's Chosen"
p869
I00
sS'Worgen Greaser'
p870
I00
sS'Burgly Bully'
p871
I00
ssS'Rogue'
p872
(dp873
S'Undercity Huckster'
p874
I00
sS'Cutpurse'
p875
I00
sS'Southsea Squidface'
p876
I00
sS'Unearthed Raptor'
p877
I00
sS'Kidnapper'
p878
I00
sS'Shadow Sensei'
p879
I00
sS'Tomb Pillager'
p880
I00
sS'Swashburglar'
p881
I00
sS"Tinker's Sharpsword Oil"
p882
I00
sS'Shadow Strike'
p883
I00
sS'Shadow Rager'
p884
I00
sS'Defias Ringleader'
p885
I00
sS'Jade Swarmer'
p886
I00
sS'Sinister Strike'
p887
I00
sS'Eviscerate'
p888
I00
sS'Shady Dealer'
p889
I00
sS'Sabotage'
p890
I00
sS'Assassinate'
p891
I00
sS'Undercity Valiant'
p892
I00
sS'Ethereal Peddler'
p893
I00
sS'Lotus Assassin'
p894
I00
sS'Deadly Poison'
p895
I00
sS'Ogre Ninja'
p896
I00
sS'Betrayal'
p897
I00
sS'Headcrack'
p898
I00
sS'Gadgetzan Ferryman'
p899
I00
sS'Cold Blood'
p900
I00
sS'SI:7 Agent'
p901
I00
sS'One-eyed Cheat'
p902
I00
sS'Vanish'
p903
I00
sS'Burgle'
p904
I00
sS'Luckydo Buccaneer'
p905
I00
sS"Anub'ar Ambusher"
p906
I00
sS'Shaku, the Collector'
p907
I01
sS'Trade Prince Gallywix'
p908
I01
sS'Goblin Auto-Barber'
p909
I00
sS'Backstab'
p910
I00
sS"Cogmaster's Wrench"
p911
I00
sS'Fan of Knives'
p912
I00
sS'Conceal'
p913
I00
sS'Dark Iron Skulker'
p914
I00
sS'Iron Sensei'
p915
I00
sS'Xaril, Poisoned Mind'
p916
I01
sS'Preparation'
p917
I00
sS'Gang Up'
p918
I00
sS'Pit Snake'
p919
I00
sS"Anub'arak"
p920
I01
sS'Bladed Cultist'
p921
I00
sS'Shadowcaster'
p922
I00
sS'Counterfeit Coin'
p923
I00
sS'Shado-Pan Rider'
p924
I00
sS'Jade Shuriken'
p925
I00
sS'Master of Disguise'
p926
I00
sS'Edwin VanCleef'
p927
I01
sS'Deadly Fork'
p928
I00
sS'Sap'
p929
I00
sS"Assassin's Blade"
p930
I00
sS'Shadowstep'
p931
I00
sS"Perdition's Blade"
p932
I00
sS'Thistle Tea'
p933
I00
sS'Patient Assassin'
p934
I00
sS'Poisoned Blade'
p935
I00
sS'Blade Flurry'
p936
I00
sS'Journey Below'
p937
I00
sS'Beneath the Grounds'
p938
I00
sS'Buccaneer'
p939
I00
sS'Sprint'
p940
I00
sS'Valeera Sanguinar'
p941
I00
sS'Shiv'
p942
I00
sS"Blade of C'Thun"
p943
I00
ssS'Shaman'
p944
(dp945
S'Primal Fusion'
p946
I00
sS'Ancestral Spirit'
p947
I00
sS'Jade Chieftain'
p948
I00
sS'Thing from Below'
p949
I00
sS'Jade Claws'
p950
I00
sS'Thrall'
p951
I00
sS'Wicked Witchdoctor'
p952
I00
sS'Bloodlust'
p953
I00
sS'Jinyu Waterspeaker'
p954
I00
sS'Unbound Elemental'
p955
I00
sS'Dunemaul Shaman'
p956
I00
sS'Tunnel Trogg'
p957
I00
sS'Lightning Storm'
p958
I00
sS'Vitality Totem'
p959
I00
sS'Call in the Finishers'
p960
I00
sS'Flamewreathed Faceless'
p961
I00
sS'Everyfin is Awesome'
p962
I00
sS'Evolve'
p963
I00
sS'Fireguard Destroyer'
p964
I00
sS'Elemental Destruction'
p965
I00
sS'Spirit Claws'
p966
I00
sS'Dust Devil'
p967
I00
sS'Charged Hammer'
p968
I00
sS'Lava Burst'
p969
I00
sS'Morgl the Oracle'
p970
I00
sS'Fire Elemental'
p971
I00
sS'Frost Shock'
p972
I00
sS'Finders Keepers'
p973
I00
sS'Hammer of Twilight'
p974
I00
sS'Draenei Totemcarver'
p975
I00
sS'White Eyes'
p976
I01
sS'Lava Shock'
p977
I00
sS'Stormforged Axe'
p978
I00
sS'Lightning Bolt'
p979
I00
sS'Hallazeal the Ascended'
p980
I01
sS'Lotus Illusionist'
p981
I00
sS'Tuskarr Totemic'
p982
I00
sS'Earth Shock'
p983
I00
sS'Mana Tide Totem'
p984
I00
sS'Powermace'
p985
I00
sS'Healing Wave'
p986
I00
sS'Windfury'
p987
I00
sS'Totemic Might'
p988
I00
sS'Maelstrom Portal'
p989
I00
sS'Reincarnate'
p990
I00
sS'Hex'
p991
I00
sS'Feral Spirit'
p992
I00
sS"Ancestor's Call"
p993
I00
sS'Far Sight'
p994
I00
sS'Flametongue Totem'
p995
I00
sS'Devolve'
p996
I00
sS'Eternal Sentinel'
p997
I00
sS'Windspeaker'
p998
I00
sS'The Mistcaller'
p999
I01
sS'Jade Lightning'
p1000
I00
sS'Forked Lightning'
p1001
I00
sS'Rumbling Elemental'
p1002
I00
sS'Crackle'
p1003
I00
sS'Master of Evolution'
p1004
I00
sS'Doomhammer'
p1005
I00
sS"Al'Akir the Windlord"
p1006
I01
sS'Whirling Zap-o-matic'
p1007
I00
sS'Ancestral Knowledge'
p1008
I00
sS'Neptulon'
p1009
I01
sS'Stormcrack'
p1010
I00
sS'Ancestral Healing'
p1011
I00
sS'Rockbiter Weapon'
p1012
I00
sS'Totem Golem'
p1013
I00
sS'Siltfin Spiritwalker'
p1014
I00
sS'Earth Elemental'
p1015
I00
sS'Thunder Bluff Valiant'
p1016
I00
ssS'Mage'
p1017
(dp1018
S'Demented Frostcaller'
p1019
I00
sS'Vaporize'
p1020
I00
sS'Manic Soulcaster'
p1021
I00
sS'Ice Block'
p1022
I00
sS'Greater Arcane Missiles'
p1023
I00
sS'Water Elemental'
p1024
I00
sS'Potion of Polymorph'
p1025
I00
sS'Duplicate'
p1026
I00
sS'Pyroblast'
p1027
I00
sS'Archmage Antonidas'
p1028
I01
sS'Blizzard'
p1029
I00
sS'Flamewaker'
p1030
I00
sS'Firelands Portal'
p1031
I00
sS'Faceless Summoner'
p1032
I00
sS'Snowchugger'
p1033
I00
sS'Arcane Missiles'
p1034
I00
sS"Medivh's Valet"
p1035
I00
sS'Rhonin'
p1036
I01
sS'Soot Spewer'
p1037
I00
sS'Mana Wyrm'
p1038
I00
sS'Flamestrike'
p1039
I00
sS'Flamecannon'
p1040
I00
sS'Khadgar'
p1041
I00
sS'Shatter'
p1042
I00
sS"Cabalist's Tome"
p1043
I00
sS'Cone of Cold'
p1044
I00
sS'Flame Leviathan'
p1045
I01
sS'Ethereal Arcanist'
p1046
I00
sS"Sorcerer's Apprentice"
p1047
I00
sS'Fallen Hero'
p1048
I00
sS'Jaina Proudmoore'
p1049
I00
sS'Ice Barrier'
p1050
I00
sS'Forbidden Flame'
p1051
I00
sS'Cult Sorcerer'
p1052
I00
sS'Echo of Medivh'
p1053
I00
sS'Animated Armor'
p1054
I00
sS'Cryomancer'
p1055
I00
sS'Goblin Blastmage'
p1056
I00
sS'Frostbolt'
p1057
I00
sS'Kirin Tor Mage'
p1058
I00
sS'Polymorph: Boar'
p1059
I00
sS'Frost Nova'
p1060
I00
sS'Forgotten Torch'
p1061
I00
sS'Ethereal Conjurer'
p1062
I00
sS'Freezing Potion'
p1063
I00
sS'Coldarra Drake'
p1064
I00
sS'Wee Spellstopper'
p1065
I00
sS'Mirror Entity'
p1066
I00
sS'Ice Lance'
p1067
I00
sS'Twilight Flamecaller'
p1068
I00
sS'Dalaran Aspirant'
p1069
I00
sS'Fireball'
p1070
I00
sS'Servant of Yogg-Saron'
p1071
I00
sS'Spellbender'
p1072
I00
sS'Spellslinger'
p1073
I00
sS'Counterspell'
p1074
I00
sS'Mirror Image'
p1075
I00
sS'Inkmaster Solia'
p1076
I01
sS'Effigy'
p1077
I00
sS'Volcanic Potion'
p1078
I00
sS'Arcane Blast'
p1079
I00
sS'Polymorph'
p1080
I00
sS'Unstable Portal'
p1081
I00
sS'Kabal Lackey'
p1082
I00
sS'Flame Lance'
p1083
I00
sS'Arcane Intellect'
p1084
I00
sS'Arcane Explosion'
p1085
I00
sS'Kabal Crystal Runner'
p1086
I00
sS'Babbling Book'
p1087
I00
sS"Dragon's Breath"
p1088
I00
sS'Anomalus'
p1089
I01
sS'Medivh'
p1090
I00
ss.