(dp0
I1
S'Dark Cultist'
p1
sI2
S'Shifting Shade'
p2
sI3
S'Shielded Minibot'
p3
sI4
S'Ragnaros, Lightlord'
p4
sI5
S'Unearthed Raptor'
p5
sI6
S'Wrath'
p6
sI7
S'Tomb Pillager'
p7
sI8
S'Explosive Trap'
p8
sI9
S'Alexstrasza'
p9
sI10
S'Deathlord'
p10
sI11
S"Tinker's Sharpsword Oil"
p11
sI12
S'Shadow Strike'
p12
sI13
S'Tunnel Trogg'
p13
sI14
S'Fel Reaver'
p14
sI15
S'Ancient Watcher'
p15
sI16
S'Fire Elemental'
p16
sI17
S'Lightning Storm'
p17
sI18
S'Rallying Blade'
p18
sI19
S'Cairne Bloodhoof'
p19
sI20
S'Snowchugger'
p20
sI21
S'Gorehowl'
p21
sI22
S'Bluegill Warrior'
p22
sI23
S'Clockwork Gnome'
p23
sI24
S'Flamecannon'
p24
sI25
S'Lava Burst'
p25
sI26
S'Harrison Jones'
p26
sI27
S'Selfless Hero'
p27
sI28
S"Sorcerer's Apprentice"
p28
sI29
S'Eater of Secrets'
p29
sI30
S'Secretkeeper'
p30
sI31
S'Barnes'
p31
sI32
S'Azure Drake'
p32
sI33
S'Snipe'
p33
sI34
S'Eaglehorn Bow'
p34
sI35
S'Bash'
p35
sI36
S'Siphon Soul'
p36
sI37
S'Anyfin Can Happen'
p37
sI38
S'Sir Finley Mrrgglton'
p38
sI39
S'Execute'
p39
sI40
S'Mountain Giant'
p40
sI41
S'Goblin Blastmage'
p41
sI42
S'Frostbolt'
p42
sI43
S'Voidcaller'
p43
sI44
S'Ethereal Conjurer'
p44
sI45
S'Shield Slam'
p45
sI46
S'Northshire Cleric'
p46
sI47
S'Ice Lance'
p47
sI48
S'Feral Spirit'
p48
sI49
S'Flash Heal'
p49
sI50
S'Malygos'
p50
sI51
S'Darkbomb'
p51
sI52
S'Excavated Evil'
p52
sI53
S'Annoy-o-Tron'
p53
sI54
S'Faceless Manipulator'
p54
sI55
S'Spellbreaker'
p55
sI56
S'Houndmaster'
p56
sI57
S'Druid of the Flame'
p57
sI58
S'Competitive Spirit'
p58
sI59
S"N'Zoth, the Corruptor"
p59
sI60
S'Savage Roar'
p60
sI61
S'Antique Healbot'
p61
sI62
S'Ravaging Ghoul'
p62
sI63
S'Druid of the Saber'
p63
sI64
S'Arcane Intellect'
p64
sI65
S'Journey Below'
p65
sI66
S'Sap'
p66
sI67
S'Mire Keeper'
p67
sI68
S'Consecration'
p68
sI69
S'Undercity Huckster'
p69
sI70
S'Humility'
p70
sI71
S'Bloodmage Thalnos'
p71
sI72
S'Sea Giant'
p72
sI73
S'Battle Rage'
p73
sI74
S'Feugen'
p74
sI75
S'Water Elemental'
p75
sI76
S'Gormok the Impaler'
p76
sI77
S'Armorsmith'
p77
sI78
S'Auchenai Soulpriest'
p78
sI79
S'Princess Huhuran'
p79
sI80
S'Redemption'
p80
sI81
S'Archmage Antonidas'
p81
sI82
S'Mysterious Challenger'
p82
sI83
S'Duplicate'
p83
sI84
S'Emperor Thaurissan'
p84
sI85
S'Arcane Missiles'
p85
sI86
S'Animal Companion'
p86
sI87
S'Unstable Portal'
p87
sI88
S'Circle of Healing'
p88
sI89
S'Repentance'
p89
sI90
S'Innervate'
p90
sI91
S'Ancestral Knowledge'
p91
sI92
S'Kill Command'
p92
sI93
S'Cold Blood'
p93
sI94
S'Divine Favor'
p94
sI95
S'Zombie Chow'
p95
sI96
S'Shade of Naxxramas'
p96
sI97
S'Violet Teacher'
p97
sI98
S'Murloc Warleader'
p98
sI99
S'Inner Rage'
p99
sI100
S'Blackwing Corruptor'
p100
sI101
S'Wild Pyromancer'
p101
sI102
S'Book Wyrm'
p102
sI103
S'Crackle'
p103
sI104
S'Mana Tide Totem'
p104
sI105
S'Equality'
p105
sI106
S'Coghammer'
p106
sI107
S'Darkshire Councilman'
p107
sI108
S'Imp Gang Boss'
p108
sI109
S'Blade Flurry'
p109
sI110
S'Flame Imp'
p110
sI111
S'Doomhammer'
p111
sI112
S'Museum Curator'
p112
sI113
S'Twilight Drake'
p113
sI114
S'Novice Engineer'
p114
sI115
S'Fiery Bat'
p115
sI116
S'Shadow Word: Death'
p116
sI117
S'Ancient of Lore'
p117
sI118
S'Flametongue Totem'
p118
sI119
S'Savage Combatant'
p119
sI120
S'Fan of Knives'
p120
sI121
S'Power Word: Shield'
p121
sI122
S'Counterspell'
p122
sI123
S'Freezing Trap'
p123
sI124
S'Old Murk-Eye'
p124
sI125
S'Gadgetzan Auctioneer'
p125
sI126
S'Quick Shot'
p126
sI127
S'Possessed Villager'
p127
sI128
S'Shieldmaiden'
p128
sI129
S'Dire Wolf Alpha'
p129
sI130
S'Argent Horserider'
p130
sI131
S'Reno Jackson'
p131
sI132
S'Dreadscale'
p132
sI133
S'Soulfire'
p133
sI134
S'Cat Trick'
p134
sI135
S'Tuskarr Totemic'
p135
sI136
S'Fireball'
p136
sI137
S'Doomguard'
p137
sI138
S'Worgen Infiltrator'
p138
sI139
S'Spider Tank'
p139
sI140
S'Keeper of the Grove'
p140
sI141
S'Swipe'
p141
sI142
S'Hex'
p142
sI143
S'Molten Giant'
p143
sI144
S'Dark Peddler'
p144
sI145
S'Enchanted Raven'
p145
sI146
S'Lava Shock'
p146
sI147
S'Twisting Nether'
p147
sI148
S'Menagerie Warden'
p148
sI149
S'Pyroblast'
p149
sI150
S'Wyrmrest Agent'
p150
sI151
S'Mad Scientist'
p151
sI152
S'Avenge'
p152
sI153
S"Kel'Thuzad"
p153
sI154
S'Tinkertown Technician'
p154
sI155
S'Hellfire'
p155
sI156
S'Flame Juggler'
p156
sI157
S'Savannah Highmane'
p157
sI158
S'Steward of Darkshire'
p158
sI159
S'Flamewreathed Faceless'
p159
sI160
S'Argent Squire'
p160
sI161
S'Twilight Whelp'
p161
sI162
S'Mechwarper'
p162
sI163
S'Cabal Shadow Priest'
p163
sI164
S'Whirling Zap-o-matic'
p164
sI165
S'Snake Trap'
p165
sI166
S'Justicar Trueheart'
p166
sI167
S'Cone of Cold'
p167
sI168
S'Eviscerate'
p168
sI169
S'Brawl'
p169
sI170
S'SI:7 Agent'
p170
sI171
S'Loot Hoarder'
p171
sI172
S'Darnassus Aspirant'
p172
sI173
S'Ancient of War'
p173
sI174
S'Nerubian Egg'
p174
sI175
S'Unleash the Hounds'
p175
sI176
S'Bear Trap'
p176
sI177
S'Light of the Naaru'
p177
sI178
S'Leeroy Jenkins'
p178
sI179
S'Backstab'
p179
sI180
S'Dread Corsair'
p180
sI181
S"Vol'jin"
p181
sI182
S'Mirror Entity'
p182
sI183
S'Knife Juggler'
p183
sI184
S'Lord Jaraxxus'
p184
sI185
S'Loatheb'
p185
sI186
S'Injured Blademaster'
p186
sI187
S'Force of Nature'
p187
sI188
S'Muster for Battle'
p188
sI189
S'Mortal Coil'
p189
sI190
S'Ysera'
p190
sI191
S"Hunter's Mark"
p191
sI192
S'Whirlwind'
p192
sI193
S'Edwin VanCleef'
p193
sI194
S'Ironbeak Owl'
p194
sI195
S'Aldor Peacekeeper'
p195
sI196
S'Blizzard'
p196
sI197
S'Piloted Shredder'
p197
sI198
S'Glaivezooka'
p198
sI199
S'Twilight Guardian'
p199
sI200
S'Big Game Hunter'
p200
sI201
S'Noble Sacrifice'
p201
sI202
S'Mounted Raptor'
p202
sI203
S'Sunfury Protector'
p203
sI204
S'Acidic Swamp Ooze'
p204
sI205
S'Haunted Creeper'
p205
sI206
S'Rockbiter Weapon'
p206
sI207
S'Totem Golem'
p207
sI208
S'Shrinkmeister'
p208
sI209
S'Doomsayer'
p209
sI210
S'Solemn Vigil'
p210
sI211
S'Powermace'
p211
sI212
S'Reliquary Seeker'
p212
sI213
S'Ivory Knight'
p213
sI214
S'Abusive Sergeant'
p214
sI215
S'Echoing Ooze'
p215
sI216
S'Lay on Hands'
p216
sI217
S'Living Roots'
p217
sI218
S'Sylvanas Windrunner'
p218
sI219
S'Shadowflame'
p219
sI220
S'Defender of Argus'
p220
sI221
S'Imp-losion'
p221
sI222
S'Cloaked Huntress'
p222
sI223
S'Acolyte of Pain'
p223
sI224
S'Shadow Word: Pain'
p224
sI225
S'Forbidden Healing'
p225
sI226
S'Elise Starseeker'
p226
sI227
S'Flamewaker'
p227
sI228
S'Dr. Boom'
p228
sI229
S'Lightning Bolt'
p229
sI230
S'Wolfrider'
p230
sI231
S'Truesilver Champion'
p231
sI232
S'Deadly Poison'
p232
sI233
S'Keeper of Uldaman'
p233
sI234
S'Mana Wyrm'
p234
sI235
S'Flamestrike'
p235
sI236
S'Grommash Hellscream'
p236
sI237
S'Voidwalker'
p237
sI238
S'Earthen Ring Farseer'
p238
sI239
S'Power Overwhelming'
p239
sI240
S'Revenge'
p240
sI241
S'Faceless Summoner'
p241
sI242
S'Cenarius'
p242
sI243
S'Wild Growth'
p243
sI244
S'Frost Nova'
p244
sI245
S'Forbidden Ritual'
p245
sI246
S'Earth Shock'
p246
sI247
S'Tirion Fordring'
p247
sI248
S'Gorillabot A-3'
p248
sI249
S'Ice Barrier'
p249
sI250
S'Holy Nova'
p250
sI251
S'Call of the Wild'
p251
sI252
S'Demonwrath'
p252
sI253
S'Stalagg'
p253
sI254
S'Fiery War Axe'
p254
sI255
S'Thing from Below'
p255
sI256
S'Blessing of Kings'
p256
sI257
S'Unstable Ghoul'
p257
sI258
S"Velen's Chosen"
p258
sI259
S'Forgotten Torch'
p259
sI260
S'Blessing of Might'
p260
sI261
S'Cogmaster'
p261
sI262
S'Maelstrom Portal'
p262
sI263
S'Thunder Bluff Valiant'
p263
sI264
S'Frothing Berserker'
p264
sI265
S'Brann Bronzebeard'
p265
sI266
S'Grim Patron'
p266
sI267
S'Entomb'
p267
sI268
S'Shield Block'
p268
sI269
S'Preparation'
p269
sI270
S'Quartermaster'
p270
sI271
S'Lightbomb'
p271
sI272
S'Mind Control Tech'
p272
sI273
S'Druid of the Claw'
p273
sI274
S'Spirit Claws'
p274
sI275
S'Arcane Blast'
p275
sI276
S"Mal'Ganis"
p276
sI277
S'Webspinner'
p277
sI278
S'Lance Carrier'
p278
sI279
S'Slam'
p279
sI280
S'Sludge Belcher'
p280
sI281
S"Mark of Y'Shaarj"
p281
sI282
S'Sprint'
p282
sI283
S'Xaril, Poisoned Mind'
p283
sI284
S'Shiv'
p284
sI285
S"Death's Bite"
p285
sI286
S'Ice Block'
p286
s.