(dp0
I1
S'Doomcaller'
p1
sI2
S'Eaglehorn Bow'
p2
sI3
S"Tinker's Sharpsword Oil"
p3
sI4
S'Blood Knight'
p4
sI5
S'Explosive Shot'
p5
sI6
S'Lightning Storm'
p6
sI7
S'Selfless Hero'
p7
sI8
S'Blade Flurry'
p8
sI9
S'The Curator'
p9
sI10
S'Goblin Blastmage'
p10
sI11
S'Frostbolt'
p11
sI12
S'Ethereal Conjurer'
p12
sI13
S'Ice Lance'
p13
sI14
S'Flash Heal'
p14
sI15
S'Faceless Manipulator'
p15
sI16
S'Competitive Spirit'
p16
sI17
S'Houndmaster'
p17
sI18
S'Mirror Image'
p18
sI19
S'Druid of the Saber'
p19
sI20
S'Journey Below'
p20
sI21
S'Holy Smite'
p21
sI22
S'Mire Keeper'
p22
sI23
S'Gormok the Impaler'
p23
sI24
S'Water Elemental'
p24
sI25
S'Meanstreet Marshal'
p25
sI26
S'Ironforge Portal'
p26
sI27
S'Armorsmith'
p27
sI28
S'Auchenai Soulpriest'
p28
sI29
S'Drakonid Operative'
p29
sI30
S'Archmage Antonidas'
p30
sI31
S'Tournament Medic'
p31
sI32
S'Jade Idol'
p32
sI33
S'Arcane Missiles'
p33
sI34
S'Faceless Shambler'
p34
sI35
S'Book Wyrm'
p35
sI36
S'Ragnaros, Lightlord'
p36
sI37
S'Dark Iron Dwarf'
p37
sI38
S'Firelands Portal'
p38
sI39
S'Shade of Naxxramas'
p39
sI40
S'Divine Strength'
p40
sI41
S'Fierce Monkey'
p41
sI42
S'Argent Protector'
p42
sI43
S'Felfire Potion'
p43
sI44
S'Equality'
p44
sI45
S'Dark Iron Skulker'
p45
sI46
S'Resurrect'
p46
sI47
S'Mukla, Tyrant of the Vale'
p47
sI48
S'Novice Engineer'
p48
sI49
S'Far Sight'
p49
sI50
S'Steward of Darkshire'
p50
sI51
S'Counterfeit Coin'
p51
sI52
S'Fan of Knives'
p52
sI53
S'Counterspell'
p53
sI54
S"Yogg-Saron, Hope's End"
p54
sI55
S'Freezing Trap'
p55
sI56
S'Feral Rage'
p56
sI57
S'Defender of Argus'
p57
sI58
S'Shieldmaiden'
p58
sI59
S'Dreadscale'
p59
sI60
S"Mal'Ganis"
p60
sI61
S'Worgen Infiltrator'
p61
sI62
S'Spider Tank'
p62
sI63
S'Aya Blackpaw'
p63
sI64
S'Baron Geddon'
p64
sI65
S'Arathi Weaponsmith'
p65
sI66
S'Hellfire'
p66
sI67
S"Al'Akir the Windlord"
p67
sI68
S'Jade Behemoth'
p68
sI69
S'Mistress of Mixtures'
p69
sI70
S'Kabal Songstealer'
p70
sI71
S'SI:7 Agent'
p71
sI72
S'Humility'
p72
sI73
S"C'Thun"
p73
sI74
S'Redemption'
p74
sI75
S'Totemic Might'
p75
sI76
S'Force of Nature'
p76
sI77
S'Mortal Coil'
p77
sI78
S'Finja, the Flying Star'
p78
sI79
S'Whirlwind'
p79
sI80
S'Blizzard'
p80
sI81
S'On the Hunt'
p81
sI82
S'Violet Teacher'
p82
sI83
S'Silent Knight'
p83
sI84
S'Sergeant Sally'
p84
sI85
S'Twilight Elder'
p85
sI86
S'Jeweled Scarab'
p86
sI87
S'Buccaneer'
p87
sI88
S'Doomsayer'
p88
sI89
S'Dark Arakkoa'
p89
sI90
S'Polymorph'
p90
sI91
S'Onyx Bishop'
p91
sI92
S'Echoing Ooze'
p92
sI93
S'Darkshire Alchemist'
p93
sI94
S'Onyxia'
p94
sI95
S'Acolyte of Pain'
p95
sI96
S'Grimscale Chum'
p96
sI97
S"Mark of Y'Shaarj"
p97
sI98
S'Voidwalker'
p98
sI99
S'Pint-Size Potion'
p99
sI100
S'Faceless Summoner'
p100
sI101
S'Wild Growth'
p101
sI102
S"Sorcerer's Apprentice"
p102
sI103
S'Patches the Pirate'
p103
sI104
S'Call of the Wild'
p104
sI105
S'Sunfury Protector'
p105
sI106
S'White Eyes'
p106
sI107
S'Stalagg'
p107
sI108
S'Cenarius'
p108
sI109
S'Rat Pack'
p109
sI110
S'Chillmaw'
p110
sI111
S"Velen's Chosen"
p111
sI112
S'Cogmaster'
p112
sI113
S'Thunder Bluff Valiant'
p113
sI114
S'Frothing Berserker'
p114
sI115
S'Grim Patron'
p115
sI116
S'Entomb'
p116
sI117
S'Shield Block'
p117
sI118
S'Lock and Load'
p118
sI119
S'Lunar Visions'
p119
sI120
S'Bloodlust'
p120
sI121
S'Sludge Belcher'
p121
sI122
S'Fandral Staghelm'
p122
sI123
S'Lotus Agents'
p123
sI124
S'Shiv'
p124
sI125
S'Annoy-o-Tron'
p125
sI126
S'Acidic Swamp Ooze'
p126
sI127
S'Ancestral Spirit'
p127
sI128
S'Wrath'
p128
sI129
S'Explosive Trap'
p129
sI130
S'Barnes'
p130
sI131
S'Netherspite Historian'
p131
sI132
S'Shadow Strike'
p132
sI133
S'Bloodsail Cultist'
p133
sI134
S'Evolve'
p134
sI135
S'Nourish'
p135
sI136
S'Dirty Rat'
p136
sI137
S'Hooded Acolyte'
p137
sI138
S"Malchezaar's Imp"
p138
sI139
S'Eater of Secrets'
p139
sI140
S'Azure Drake'
p140
sI141
S'Chromaggus'
p141
sI142
S'Cult Sorcerer'
p142
sI143
S'Siphon Soul'
p143
sI144
S'Sir Finley Mrrgglton'
p144
sI145
S'Execute'
p145
sI146
S'Twisted Worgen'
p146
sI147
S"Alexstrasza's Champion"
p147
sI148
S'Naga Sea Witch'
p148
sI149
S"Light's Justice"
p149
sI150
S'Cairne Bloodhoof'
p150
sI151
S'Fireball'
p151
sI152
S'Darkbomb'
p152
sI153
S'Ice Barrier'
p153
sI154
S'Deadly Shot'
p154
sI155
S'Faerie Dragon'
p155
sI156
S'Crackle'
p156
sI157
S'Menagerie Warden'
p157
sI158
S'Sap'
p158
sI159
S'Stampeding Kodo'
p159
sI160
S'Muster for Battle'
p160
sI161
S'Undercity Huckster'
p161
sI162
S'Bloodmage Thalnos'
p162
sI163
S'Small-Time Buccaneer'
p163
sI164
S'Battle Rage'
p164
sI165
S'Dread Corsair'
p165
sI166
S'Elemental Destruction'
p166
sI167
S'Big Game Hunter'
p167
sI168
S'Wrathguard'
p168
sI169
S'Spirit Claws'
p169
sI170
S'Lance Carrier'
p170
sI171
S'Innervate'
p171
sI172
S'Divine Favor'
p172
sI173
S'Abyssal Enforcer'
p173
sI174
S'Inner Rage'
p174
sI175
S'Blackwing Corruptor'
p175
sI176
S"King's Elekk"
p176
sI177
S'Kindly Grandmother'
p177
sI178
S'Bilefin Tidehunter'
p178
sI179
S'Kabal Courier'
p179
sI180
S'Flame Imp'
p180
sI181
S'Doomhammer'
p181
sI182
S'Museum Curator'
p182
sI183
S'Fiery Bat'
p183
sI184
S'Shadow Word: Death'
p184
sI185
S'Cult Apothecary'
p185
sI186
S'Ancient of Lore'
p186
sI187
S'I Know a Guy'
p187
sI188
S'Babbling Book'
p188
sI189
S'Spellslinger'
p189
sI190
S'Gadgetzan Auctioneer'
p190
sI191
S'Snake Trap'
p191
sI192
S'Power of the Wild'
p192
sI193
S'Manic Soulcaster'
p193
sI194
S'Shadow Bolt'
p194
sI195
S'Ivory Knight'
p195
sI196
S'Argent Commander'
p196
sI197
S'Justicar Trueheart'
p197
sI198
S'Savage Roar'
p198
sI199
S'Pyroblast'
p199
sI200
S'Mad Scientist'
p200
sI201
S'Flame Juggler'
p201
sI202
S'Pantry Spider'
p202
sI203
S'Bloodsail Raider'
p203
sI204
S'Whirling Zap-o-matic'
p204
sI205
S'Arcanosmith'
p205
sI206
S'Cone of Cold'
p206
sI207
S'Fist of Jaraxxus'
p207
sI208
S'Nexus-Champion Saraad'
p208
sI209
S'Ancient of War'
p209
sI210
S'Dragon Consort'
p210
sI211
S'Kazakus'
p211
sI212
S'Lava Shock'
p212
sI213
S'Cloaked Huntress'
p213
sI214
S'Leeroy Jenkins'
p214
sI215
S'Earth Shock'
p215
sI216
S"Vol'jin"
p216
sI217
S'Mirror Entity'
p217
sI218
S'Preparation'
p218
sI219
S'Beckoner of Evil'
p219
sI220
S'Ancient Watcher'
p220
sI221
S'Edwin VanCleef'
p221
sI222
S'Ironbeak Owl'
p222
sI223
S'Kodorider'
p223
sI224
S'Forgotten Torch'
p224
sI225
S'Sea Giant'
p225
sI226
S'Twilight Guardian'
p226
sI227
S'Ancestral Knowledge'
p227
sI228
S'Solemn Vigil'
p228
sI229
S'Nightbane Templar'
p229
sI230
S'Shadowflame'
p230
sI231
S'Shieldbearer'
p231
sI232
S'Shadow Word: Pain'
p232
sI233
S'Tunnel Trogg'
p233
sI234
S'Flamewaker'
p234
sI235
S'Dragonfire Potion'
p235
sI236
S"Y'Shaarj, Rage Unbound"
p236
sI237
S'Deadly Poison'
p237
sI238
S'Brawl'
p238
sI239
S'Mulch'
p239
sI240
S'Earthen Ring Farseer'
p240
sI241
S'Mountain Giant'
p241
sI242
S'Consecration'
p242
sI243
S'Gorillabot A-3'
p243
sI244
S'Antique Healbot'
p244
sI245
S'Clockwork Gnome'
p245
sI246
S'Kabal Talonpriest'
p246
sI247
S'Refreshment Vendor'
p247
sI248
S'Fiery War Axe'
p248
sI249
S'Varian Wrynn'
p249
sI250
S'Mana Tide Totem'
p250
sI251
S'Maelstrom Portal'
p251
sI252
S'Soulfire'
p252
sI253
S'Lord Jaraxxus'
p253
sI254
S'Lightbomb'
p254
sI255
S'Druid of the Claw'
p255
sI256
S'Webspinner'
p256
sI257
S'Mana Wyrm'
p257
sI258
S'Flame Lance'
p258
sI259
S'Demonwrath'
p259
sI260
S'Commanding Shout'
p260
sI261
S'Haunted Creeper'
p261
sI262
S'Ice Block'
p262
sI263
S'Shifting Shade'
p263
sI264
S'Unearthed Raptor'
p264
sI265
S'Master of Evolution'
p265
sI266
S'Deathlord'
p266
sI267
S"Twin Emperor Vek'lor"
p267
sI268
S'Wicked Witchdoctor'
p268
sI269
S'Fel Reaver'
p269
sI270
S'Crazed Worshipper'
p270
sI271
S'Rallying Blade'
p271
sI272
S'Thing from Below'
p272
sI273
S'Shadowcaster'
p273
sI274
S'Wisps of the Old Gods'
p274
sI275
S'Lava Burst'
p275
sI276
S'Heroic Strike'
p276
sI277
S'Harrison Jones'
p277
sI278
S'Silithid Swarmer'
p278
sI279
S'Burgle'
p279
sI280
S'Twilight Darkmender'
p280
sI281
S'Snipe'
p281
sI282
S'Bash'
p282
sI283
S'Anyfin Can Happen'
p283
sI284
S'Sylvanas Windrunner'
p284
sI285
S'Lightning Bolt'
p285
sI286
S'Voidcaller'
p286
sI287
S'Jade Lightning'
p287
sI288
S'Malygos'
p288
sI289
S'Excavated Evil'
p289
sI290
S'Small-Time Recruits'
p290
sI291
S"Disciple of C'Thun"
p291
sI292
S"N'Zoth, the Corruptor"
p292
sI293
S'Defias Ringleader'
p293
sI294
S'Unstable Portal'
p294
sI295
S'Captain Greenskin'
p295
sI296
S'Stranglethorn Tiger'
p296
sI297
S'Coldlight Seer'
p297
sI298
S'Shadow Rager'
p298
sI299
S'Animal Companion'
p299
sI300
S'Cold Blood'
p300
sI301
S'Zombie Chow'
p301
sI302
S'Coldlight Oracle'
p302
sI303
S'Carrion Grub'
p303
sI304
S'Moonglade Portal'
p304
sI305
S'Arcanite Reaper'
p305
sI306
S'Quartermaster'
p306
sI307
S'Stolen Goods'
p307
sI308
S"Medivh's Valet"
p308
sI309
S'Savage Combatant'
p309
sI310
S'Garrison Commander'
p310
sI311
S'Reliquary Seeker'
p311
sI312
S'Corrupted Healbot'
p312
sI313
S'Dire Wolf Alpha'
p313
sI314
S'Ragnaros the Firelord'
p314
sI315
S'Primal Fusion'
p315
sI316
S'Powermace'
p316
sI317
S'Jade Chieftain'
p317
sI318
S'Bluegill Warrior'
p318
sI319
S'Hex'
p319
sI320
S'Dark Peddler'
p320
sI321
S'Wyrmrest Agent'
p321
sI322
S'Avenge'
p322
sI323
S'Savannah Highmane'
p323
sI324
S'Tundra Rhino'
p324
sI325
S'Argent Squire'
p325
sI326
S'Twilight Whelp'
p326
sI327
S"Cabalist's Tome"
p327
sI328
S'Ethereal Peddler'
p328
sI329
S'Malkorok'
p329
sI330
S'Nerubian Egg'
p330
sI331
S'Jade Spirit'
p331
sI332
S'Silverware Golem'
p332
sI333
S'Light of the Naaru'
p333
sI334
S'Soul of the Forest'
p334
sI335
S'Knife Juggler'
p335
sI336
S'Loatheb'
p336
sI337
S'Ysera'
p337
sI338
S'Tiny Knight of Evil'
p338
sI339
S'Piloted Shredder'
p339
sI340
S'Mounted Raptor'
p340
sI341
S'Darkshire Councilman'
p341
sI342
S'Twilight Summoner'
p342
sI343
S'Rockbiter Weapon'
p343
sI344
S'Totem Golem'
p344
sI345
S'Arcane Giant'
p345
sI346
S'Volcanic Potion'
p346
sI347
S'Abusive Sergeant'
p347
sI348
S'Bloodhoof Brave'
p348
sI349
S'Jade Blossom'
p349
sI350
S'Elise Starseeker'
p350
sI351
S'Dr. Boom'
p351
sI352
S'Truesilver Champion'
p352
sI353
S'Hallazeal the Ascended'
p353
sI354
S'Keeper of Uldaman'
p354
sI355
S'Powershot'
p355
sI356
S'Power Overwhelming'
p356
sI357
S'Revenge'
p357
sI358
S'Forbidden Ritual'
p358
sI359
S'Grimestreet Outfitter'
p359
sI360
S'Tirion Fordring'
p360
sI361
S'Aldor Peacekeeper'
p361
sI362
S'Arcane Intellect'
p362
sI363
S'Moonfire'
p363
sI364
S'Wolfrider'
p364
sI365
S'Unstable Ghoul'
p365
sI366
S'Master Jouster'
p366
sI367
S'Ancient Shieldbearer'
p367
sI368
S'Brann Bronzebeard'
p368
sI369
S'Earth Elemental'
p369
sI370
S'Arcane Blast'
p370
sI371
S'Potion of Madness'
p371
sI372
S'Slam'
p372
sI373
S'Grommash Hellscream'
p373
sI374
S'Sprint'
p374
sI375
S'Mind Control Tech'
p375
sI376
S'Murloc Tidecaller'
p376
sI377
S"Death's Bite"
p377
sI378
S'Dark Cultist'
p378
sI379
S'Gnomish Inventor'
p379
sI380
S'Infested Tauren'
p380
sI381
S'Tomb Pillager'
p381
sI382
S'Alexstrasza'
p382
sI383
S'Huge Toad'
p383
sI384
S'Deathwing'
p384
sI385
S'Snowchugger'
p385
sI386
S'Gorehowl'
p386
sI387
S'Upgrade!'
p387
sI388
S'Eydis Darkbane'
p388
sI389
S'Flamecannon'
p389
sI390
S'Drakonid Crusher'
p390
sI391
S'Enchanted Raven'
p391
sI392
S'Secretkeeper'
p392
sI393
S'Old Murk-Eye'
p393
sI394
S'Tracking'
p394
sI395
S'Jungle Moonkin'
p395
sI396
S'Shield Slam'
p396
sI397
S'Northshire Cleric'
p397
sI398
S"Kor'kron Elite"
p398
sI399
S'Possessed Villager'
p399
sI400
S'Feral Spirit'
p400
sI401
S'Imp Gang Boss'
p401
sI402
S'Thoughtsteal'
p402
sI403
S'Spellbreaker'
p403
sI404
S'Druid of the Flame'
p404
sI405
S'Holy Nova'
p405
sI406
S'Young Priestess'
p406
sI407
S'Coghammer'
p407
sI408
S'Priest of the Feast'
p408
sI409
S'Blood To Ichor'
p409
sI410
S'Confessor Paletress'
p410
sI411
S'Arcane Shot'
p411
sI412
S'Feugen'
p412
sI413
S'Jade Claws'
p413
sI414
S'Questing Adventurer'
p414
sI415
S'Jinyu Waterspeaker'
p415
sI416
S'Princess Huhuran'
p416
sI417
S'Sinister Strike'
p417
sI418
S'Lay on Hands'
p418
sI419
S'Alley Armorsmith'
p419
sI420
S'Shielded Minibot'
p420
sI421
S'Greater Healing Potion'
p421
sI422
S'Circle of Healing'
p422
sI423
S'Kun the Forgotten King'
p423
sI424
S'Repentance'
p424
sI425
S'Kill Command'
p425
sI426
S'Murloc Warleader'
p426
sI427
S'Wild Pyromancer'
p427
sI428
S'Nerubian Prophet'
p428
sI429
S'Mysterious Challenger'
p429
sI430
S'Blessing of Might'
p430
sI431
S'Conceal'
p431
sI432
S'Bog Creeper'
p432
sI433
S'Healing Wave'
p433
sI434
S'Twilight Drake'
p434
sI435
S'Injured Kvaldir'
p435
sI436
S'Flametongue Totem'
p436
sI437
S'Power Word: Shield'
p437
sI438
S'Noble Sacrifice'
p438
sI439
S"Sen'jin Shieldmasta"
p439
sI440
S'Medivh, the Guardian'
p440
sI441
S'Quick Shot'
p441
sI442
S'Kobold Geomancer'
p442
sI443
S'Argent Horserider'
p443
sI444
S'Reno Jackson'
p444
sI445
S'Cat Trick'
p445
sI446
S'Klaxxi Amber-Weaver'
p446
sI447
S"Smuggler's Run"
p447
sI448
S'Infested Wolf'
p448
sI449
S'Keeper of the Grove'
p449
sI450
S'Swipe'
p450
sI451
S'Molten Giant'
p451
sI452
S'Vilefin Inquisitor'
p452
sI453
S'Duplicate'
p453
sI454
S"Kel'Thuzad"
p454
sI455
S'Tinkertown Technician'
p455
sI456
S'Raven Idol'
p456
sI457
S'Flamewreathed Faceless'
p457
sI458
S"N'Zoth's First Mate"
p458
sI459
S'Cabal Shadow Priest'
p459
sI460
S'Doomguard'
p460
sI461
S'Fire Elemental'
p461
sI462
S'Loot Hoarder'
p462
sI463
S'Darnassus Aspirant'
p463
sI464
S'Trogg Beastrager'
p464
sI465
S'Forbidden Flame'
p465
sI466
S'Shadow Madness'
p466
sI467
S'Bear Trap'
p467
sI468
S'Raza the Chained'
p468
sI469
S'Injured Blademaster'
p469
sI470
S'Aviana'
p470
sI471
S'Darkshire Librarian'
p471
sI472
S"Hunter's Mark"
p472
sI473
S'Ravaging Ghoul'
p473
sI474
S'Alleycat'
p474
sI475
S'Glaivezooka'
p475
sI476
S'Desert Camel'
p476
sI477
S'Twisting Nether'
p477
sI478
S'Blackwing Technician'
p478
sI479
S'Shrinkmeister'
p479
sI480
S'Tuskarr Totemic'
p480
sI481
S'Mechwarper'
p481
sI482
S'Swashburglar'
p482
sI483
S'Seal of Champions'
p483
sI484
S'Living Roots'
p484
sI485
S'Imp-losion'
p485
sI486
S'Southsea Captain'
p486
sI487
S'Eviscerate'
p487
sI488
S'Backstab'
p488
sI489
S'Dispatch Kodo'
p489
sI490
S'Flamestrike'
p490
sI491
S'Emperor Thaurissan'
p491
sI492
S'Southsea Deckhand'
p492
sI493
S'Blessing of Kings'
p493
sI494
S'Forbidden Healing'
p494
sI495
S'Frost Nova'
p495
sI496
S'The Black Knight'
p496
sI497
S'Dragon Egg'
p497
sI498
S'Unleash the Hounds'
p498
sI499
S'Xaril, Poisoned Mind'
p499
sI500
S'Mortal Strike'
p500
sI501
S"Skycap'n Kragg"
p501
sI502
S'Grimscale Oracle'
p502
sI503
S"C'Thun's Chosen"
p503
s.