(dp0
I1
S'Doomcaller'
p1
sI2
S'Eaglehorn Bow'
p2
sI3
S"Tinker's Sharpsword Oil"
p3
sI4
S'Blood Knight'
p4
sI5
S'Explosive Shot'
p5
sI6
S'Lightning Storm'
p6
sI7
S'Selfless Hero'
p7
sI8
S'Blade Flurry'
p8
sI9
S'The Curator'
p9
sI10
S'Goblin Blastmage'
p10
sI11
S'Frostbolt'
p11
sI12
S'Ethereal Conjurer'
p12
sI13
S'Ice Lance'
p13
sI14
S'Flash Heal'
p14
sI15
S'Faceless Manipulator'
p15
sI16
S'Competitive Spirit'
p16
sI17
S'Houndmaster'
p17
sI18
S'Mirror Image'
p18
sI19
S'Druid of the Saber'
p19
sI20
S'Journey Below'
p20
sI21
S'Mire Keeper'
p21
sI22
S'Gormok the Impaler'
p22
sI23
S'Water Elemental'
p23
sI24
S'Ironforge Portal'
p24
sI25
S'Armorsmith'
p25
sI26
S'Auchenai Soulpriest'
p26
sI27
S'Archmage Antonidas'
p27
sI28
S'Arcane Missiles'
p28
sI29
S'Faceless Shambler'
p29
sI30
S'Book Wyrm'
p30
sI31
S'Ragnaros, Lightlord'
p31
sI32
S'Dark Iron Dwarf'
p32
sI33
S'Firelands Portal'
p33
sI34
S'Shade of Naxxramas'
p34
sI35
S'Divine Strength'
p35
sI36
S'Fierce Monkey'
p36
sI37
S'Argent Protector'
p37
sI38
S'Equality'
p38
sI39
S'Dark Iron Skulker'
p39
sI40
S'Resurrect'
p40
sI41
S'Mukla, Tyrant of the Vale'
p41
sI42
S'Novice Engineer'
p42
sI43
S'Far Sight'
p43
sI44
S'Steward of Darkshire'
p44
sI45
S'Fan of Knives'
p45
sI46
S'Counterspell'
p46
sI47
S"Yogg-Saron, Hope's End"
p47
sI48
S'Freezing Trap'
p48
sI49
S'Feral Rage'
p49
sI50
S'Defender of Argus'
p50
sI51
S'Shieldmaiden'
p51
sI52
S'Dreadscale'
p52
sI53
S"Mal'Ganis"
p53
sI54
S'Worgen Infiltrator'
p54
sI55
S'Spider Tank'
p55
sI56
S'Baron Geddon'
p56
sI57
S'Arathi Weaponsmith'
p57
sI58
S'Hellfire'
p58
sI59
S"Al'Akir the Windlord"
p59
sI60
S'SI:7 Agent'
p60
sI61
S'Humility'
p61
sI62
S"C'Thun"
p62
sI63
S'Redemption'
p63
sI64
S'Totemic Might'
p64
sI65
S'Force of Nature'
p65
sI66
S'Mortal Coil'
p66
sI67
S'Whirlwind'
p67
sI68
S'Blizzard'
p68
sI69
S'On the Hunt'
p69
sI70
S'Violet Teacher'
p70
sI71
S'Silent Knight'
p71
sI72
S'Twilight Elder'
p72
sI73
S'Jeweled Scarab'
p73
sI74
S'Doomsayer'
p74
sI75
S'Dark Arakkoa'
p75
sI76
S'Onyx Bishop'
p76
sI77
S'Echoing Ooze'
p77
sI78
S'Darkshire Alchemist'
p78
sI79
S'Onyxia'
p79
sI80
S'Acolyte of Pain'
p80
sI81
S"Mark of Y'Shaarj"
p81
sI82
S'Voidwalker'
p82
sI83
S'Faceless Summoner'
p83
sI84
S'Wild Growth'
p84
sI85
S"Sorcerer's Apprentice"
p85
sI86
S'Call of the Wild'
p86
sI87
S'Sunfury Protector'
p87
sI88
S'Stalagg'
p88
sI89
S'Cenarius'
p89
sI90
S'Chillmaw'
p90
sI91
S"Velen's Chosen"
p91
sI92
S'Cogmaster'
p92
sI93
S'Thunder Bluff Valiant'
p93
sI94
S'Frothing Berserker'
p94
sI95
S'Grim Patron'
p95
sI96
S'Entomb'
p96
sI97
S'Shield Block'
p97
sI98
S'Lock and Load'
p98
sI99
S'Bloodlust'
p99
sI100
S'Sludge Belcher'
p100
sI101
S'Fandral Staghelm'
p101
sI102
S'Shiv'
p102
sI103
S'Annoy-o-Tron'
p103
sI104
S'Acidic Swamp Ooze'
p104
sI105
S'Ancestral Spirit'
p105
sI106
S'Wrath'
p106
sI107
S'Explosive Trap'
p107
sI108
S'Barnes'
p108
sI109
S'Netherspite Historian'
p109
sI110
S'Shadow Strike'
p110
sI111
S'Bloodsail Cultist'
p111
sI112
S'Evolve'
p112
sI113
S'Nourish'
p113
sI114
S'Hooded Acolyte'
p114
sI115
S"Malchezaar's Imp"
p115
sI116
S'Eater of Secrets'
p116
sI117
S'Azure Drake'
p117
sI118
S'Chromaggus'
p118
sI119
S'Cult Sorcerer'
p119
sI120
S'Siphon Soul'
p120
sI121
S'Sir Finley Mrrgglton'
p121
sI122
S'Execute'
p122
sI123
S'Twisted Worgen'
p123
sI124
S"Alexstrasza's Champion"
p124
sI125
S'Naga Sea Witch'
p125
sI126
S'Cairne Bloodhoof'
p126
sI127
S'Fireball'
p127
sI128
S'Darkbomb'
p128
sI129
S'Ice Barrier'
p129
sI130
S'Deadly Shot'
p130
sI131
S'Faerie Dragon'
p131
sI132
S'Crackle'
p132
sI133
S'Menagerie Warden'
p133
sI134
S'Sap'
p134
sI135
S'Stampeding Kodo'
p135
sI136
S'Muster for Battle'
p136
sI137
S'Undercity Huckster'
p137
sI138
S'Bloodmage Thalnos'
p138
sI139
S'Battle Rage'
p139
sI140
S'Dread Corsair'
p140
sI141
S'Elemental Destruction'
p141
sI142
S'Big Game Hunter'
p142
sI143
S'Wrathguard'
p143
sI144
S'Spirit Claws'
p144
sI145
S'Lance Carrier'
p145
sI146
S'Innervate'
p146
sI147
S'Divine Favor'
p147
sI148
S'Inner Rage'
p148
sI149
S'Blackwing Corruptor'
p149
sI150
S"King's Elekk"
p150
sI151
S'Kindly Grandmother'
p151
sI152
S'Bilefin Tidehunter'
p152
sI153
S'Flame Imp'
p153
sI154
S'Doomhammer'
p154
sI155
S'Museum Curator'
p155
sI156
S'Fiery Bat'
p156
sI157
S'Shadow Word: Death'
p157
sI158
S'Cult Apothecary'
p158
sI159
S'Ancient of Lore'
p159
sI160
S'Babbling Book'
p160
sI161
S'Spellslinger'
p161
sI162
S'Gadgetzan Auctioneer'
p162
sI163
S'Snake Trap'
p163
sI164
S'Power of the Wild'
p164
sI165
S'Shadow Bolt'
p165
sI166
S'Ivory Knight'
p166
sI167
S'Argent Commander'
p167
sI168
S'Justicar Trueheart'
p168
sI169
S'Savage Roar'
p169
sI170
S'Pyroblast'
p170
sI171
S'Mad Scientist'
p171
sI172
S'Flame Juggler'
p172
sI173
S'Pantry Spider'
p173
sI174
S'Bloodsail Raider'
p174
sI175
S'Whirling Zap-o-matic'
p175
sI176
S'Arcanosmith'
p176
sI177
S'Cone of Cold'
p177
sI178
S'Fist of Jaraxxus'
p178
sI179
S'Ancient of War'
p179
sI180
S'Dragon Consort'
p180
sI181
S'Lava Shock'
p181
sI182
S'Cloaked Huntress'
p182
sI183
S'Leeroy Jenkins'
p183
sI184
S'Earth Shock'
p184
sI185
S"Vol'jin"
p185
sI186
S'Mirror Entity'
p186
sI187
S'Preparation'
p187
sI188
S'Beckoner of Evil'
p188
sI189
S'Ancient Watcher'
p189
sI190
S'Edwin VanCleef'
p190
sI191
S'Ironbeak Owl'
p191
sI192
S'Forgotten Torch'
p192
sI193
S'Sea Giant'
p193
sI194
S'Twilight Guardian'
p194
sI195
S'Ancestral Knowledge'
p195
sI196
S'Solemn Vigil'
p196
sI197
S'Nightbane Templar'
p197
sI198
S'Shadowflame'
p198
sI199
S'Shieldbearer'
p199
sI200
S'Shadow Word: Pain'
p200
sI201
S'Tunnel Trogg'
p201
sI202
S'Flamewaker'
p202
sI203
S"Y'Shaarj, Rage Unbound"
p203
sI204
S'Deadly Poison'
p204
sI205
S'Brawl'
p205
sI206
S'Mulch'
p206
sI207
S'Earthen Ring Farseer'
p207
sI208
S'Mountain Giant'
p208
sI209
S'Consecration'
p209
sI210
S'Gorillabot A-3'
p210
sI211
S'Antique Healbot'
p211
sI212
S'Clockwork Gnome'
p212
sI213
S'Refreshment Vendor'
p213
sI214
S'Fiery War Axe'
p214
sI215
S'Varian Wrynn'
p215
sI216
S'Mana Tide Totem'
p216
sI217
S'Maelstrom Portal'
p217
sI218
S'Soulfire'
p218
sI219
S'Lord Jaraxxus'
p219
sI220
S'Lightbomb'
p220
sI221
S'Druid of the Claw'
p221
sI222
S'Webspinner'
p222
sI223
S'Mana Wyrm'
p223
sI224
S'Demonwrath'
p224
sI225
S'Commanding Shout'
p225
sI226
S'Haunted Creeper'
p226
sI227
S'Ice Block'
p227
sI228
S'Shifting Shade'
p228
sI229
S'Unearthed Raptor'
p229
sI230
S'Master of Evolution'
p230
sI231
S'Deathlord'
p231
sI232
S"Twin Emperor Vek'lor"
p232
sI233
S'Wicked Witchdoctor'
p233
sI234
S'Fel Reaver'
p234
sI235
S'Crazed Worshipper'
p235
sI236
S'Rallying Blade'
p236
sI237
S'Thing from Below'
p237
sI238
S'Shadowcaster'
p238
sI239
S'Wisps of the Old Gods'
p239
sI240
S'Lava Burst'
p240
sI241
S'Heroic Strike'
p241
sI242
S'Harrison Jones'
p242
sI243
S'Silithid Swarmer'
p243
sI244
S'Burgle'
p244
sI245
S'Twilight Darkmender'
p245
sI246
S'Snipe'
p246
sI247
S'Bash'
p247
sI248
S'Anyfin Can Happen'
p248
sI249
S'Sylvanas Windrunner'
p249
sI250
S'Lightning Bolt'
p250
sI251
S'Voidcaller'
p251
sI252
S'Malygos'
p252
sI253
S'Excavated Evil'
p253
sI254
S"Disciple of C'Thun"
p254
sI255
S"N'Zoth, the Corruptor"
p255
sI256
S'Defias Ringleader'
p256
sI257
S'Unstable Portal'
p257
sI258
S'Captain Greenskin'
p258
sI259
S'Stranglethorn Tiger'
p259
sI260
S'Animal Companion'
p260
sI261
S'Cold Blood'
p261
sI262
S'Zombie Chow'
p262
sI263
S'Coldlight Oracle'
p263
sI264
S'Carrion Grub'
p264
sI265
S'Moonglade Portal'
p265
sI266
S'Arcanite Reaper'
p266
sI267
S'Quartermaster'
p267
sI268
S"Medivh's Valet"
p268
sI269
S'Savage Combatant'
p269
sI270
S'Reliquary Seeker'
p270
sI271
S'Corrupted Healbot'
p271
sI272
S'Dire Wolf Alpha'
p272
sI273
S'Ragnaros the Firelord'
p273
sI274
S'Primal Fusion'
p274
sI275
S'Powermace'
p275
sI276
S'Bluegill Warrior'
p276
sI277
S'Hex'
p277
sI278
S'Dark Peddler'
p278
sI279
S'Wyrmrest Agent'
p279
sI280
S'Avenge'
p280
sI281
S'Savannah Highmane'
p281
sI282
S'Tundra Rhino'
p282
sI283
S'Argent Squire'
p283
sI284
S'Twilight Whelp'
p284
sI285
S"Cabalist's Tome"
p285
sI286
S'Ethereal Peddler'
p286
sI287
S'Malkorok'
p287
sI288
S'Nerubian Egg'
p288
sI289
S'Silverware Golem'
p289
sI290
S'Light of the Naaru'
p290
sI291
S'Soul of the Forest'
p291
sI292
S'Knife Juggler'
p292
sI293
S'Loatheb'
p293
sI294
S'Ysera'
p294
sI295
S'Tiny Knight of Evil'
p295
sI296
S'Piloted Shredder'
p296
sI297
S'Mounted Raptor'
p297
sI298
S'Darkshire Councilman'
p298
sI299
S'Twilight Summoner'
p299
sI300
S'Rockbiter Weapon'
p300
sI301
S'Totem Golem'
p301
sI302
S'Arcane Giant'
p302
sI303
S'Abusive Sergeant'
p303
sI304
S'Bloodhoof Brave'
p304
sI305
S'Elise Starseeker'
p305
sI306
S'Dr. Boom'
p306
sI307
S'Truesilver Champion'
p307
sI308
S'Hallazeal the Ascended'
p308
sI309
S'Keeper of Uldaman'
p309
sI310
S'Powershot'
p310
sI311
S'Power Overwhelming'
p311
sI312
S'Revenge'
p312
sI313
S'Forbidden Ritual'
p313
sI314
S'Tirion Fordring'
p314
sI315
S'Aldor Peacekeeper'
p315
sI316
S'Arcane Intellect'
p316
sI317
S'Moonfire'
p317
sI318
S'Wolfrider'
p318
sI319
S'Unstable Ghoul'
p319
sI320
S'Master Jouster'
p320
sI321
S'Ancient Shieldbearer'
p321
sI322
S'Brann Bronzebeard'
p322
sI323
S'Earth Elemental'
p323
sI324
S'Arcane Blast'
p324
sI325
S'Slam'
p325
sI326
S'Grommash Hellscream'
p326
sI327
S'Sprint'
p327
sI328
S'Mind Control Tech'
p328
sI329
S"Death's Bite"
p329
sI330
S'Dark Cultist'
p330
sI331
S'Gnomish Inventor'
p331
sI332
S'Infested Tauren'
p332
sI333
S'Tomb Pillager'
p333
sI334
S'Alexstrasza'
p334
sI335
S'Huge Toad'
p335
sI336
S'Deathwing'
p336
sI337
S'Snowchugger'
p337
sI338
S'Gorehowl'
p338
sI339
S'Upgrade!'
p339
sI340
S'Eydis Darkbane'
p340
sI341
S'Flamecannon'
p341
sI342
S'Drakonid Crusher'
p342
sI343
S'Enchanted Raven'
p343
sI344
S'Secretkeeper'
p344
sI345
S'Old Murk-Eye'
p345
sI346
S'Tracking'
p346
sI347
S'Jungle Moonkin'
p347
sI348
S'Shield Slam'
p348
sI349
S'Northshire Cleric'
p349
sI350
S"Kor'kron Elite"
p350
sI351
S'Possessed Villager'
p351
sI352
S'Feral Spirit'
p352
sI353
S'Imp Gang Boss'
p353
sI354
S'Spellbreaker'
p354
sI355
S'Druid of the Flame'
p355
sI356
S'Holy Nova'
p356
sI357
S'Young Priestess'
p357
sI358
S'Coghammer'
p358
sI359
S'Priest of the Feast'
p359
sI360
S'Blood To Ichor'
p360
sI361
S'Arcane Shot'
p361
sI362
S'Feugen'
p362
sI363
S'Questing Adventurer'
p363
sI364
S'Princess Huhuran'
p364
sI365
S'Sinister Strike'
p365
sI366
S'Lay on Hands'
p366
sI367
S'Shielded Minibot'
p367
sI368
S'Circle of Healing'
p368
sI369
S'Repentance'
p369
sI370
S'Kill Command'
p370
sI371
S'Murloc Warleader'
p371
sI372
S'Wild Pyromancer'
p372
sI373
S'Nerubian Prophet'
p373
sI374
S'Mysterious Challenger'
p374
sI375
S'Blessing of Might'
p375
sI376
S'Conceal'
p376
sI377
S'Bog Creeper'
p377
sI378
S'Healing Wave'
p378
sI379
S'Twilight Drake'
p379
sI380
S'Injured Kvaldir'
p380
sI381
S'Flametongue Totem'
p381
sI382
S'Power Word: Shield'
p382
sI383
S'Noble Sacrifice'
p383
sI384
S"Sen'jin Shieldmasta"
p384
sI385
S'Medivh, the Guardian'
p385
sI386
S'Quick Shot'
p386
sI387
S'Kobold Geomancer'
p387
sI388
S'Argent Horserider'
p388
sI389
S'Reno Jackson'
p389
sI390
S'Cat Trick'
p390
sI391
S'Klaxxi Amber-Weaver'
p391
sI392
S'Infested Wolf'
p392
sI393
S'Keeper of the Grove'
p393
sI394
S'Swipe'
p394
sI395
S'Molten Giant'
p395
sI396
S'Duplicate'
p396
sI397
S"Kel'Thuzad"
p397
sI398
S'Tinkertown Technician'
p398
sI399
S'Raven Idol'
p399
sI400
S'Flamewreathed Faceless'
p400
sI401
S"N'Zoth's First Mate"
p401
sI402
S'Cabal Shadow Priest'
p402
sI403
S'Doomguard'
p403
sI404
S'Fire Elemental'
p404
sI405
S'Loot Hoarder'
p405
sI406
S'Darnassus Aspirant'
p406
sI407
S'Shadow Madness'
p407
sI408
S'Bear Trap'
p408
sI409
S'Injured Blademaster'
p409
sI410
S'Aviana'
p410
sI411
S'Darkshire Librarian'
p411
sI412
S"Hunter's Mark"
p412
sI413
S'Ravaging Ghoul'
p413
sI414
S'Glaivezooka'
p414
sI415
S'Desert Camel'
p415
sI416
S'Twisting Nether'
p416
sI417
S'Blackwing Technician'
p417
sI418
S'Shrinkmeister'
p418
sI419
S'Tuskarr Totemic'
p419
sI420
S'Mechwarper'
p420
sI421
S'Swashburglar'
p421
sI422
S'Seal of Champions'
p422
sI423
S'Living Roots'
p423
sI424
S'Imp-losion'
p424
sI425
S'Southsea Captain'
p425
sI426
S'Eviscerate'
p426
sI427
S'Backstab'
p427
sI428
S'Flamestrike'
p428
sI429
S'Emperor Thaurissan'
p429
sI430
S'Southsea Deckhand'
p430
sI431
S'Blessing of Kings'
p431
sI432
S'Forbidden Healing'
p432
sI433
S'Frost Nova'
p433
sI434
S'The Black Knight'
p434
sI435
S'Dragon Egg'
p435
sI436
S'Unleash the Hounds'
p436
sI437
S'Xaril, Poisoned Mind'
p437
sI438
S'Mortal Strike'
p438
sI439
S"Skycap'n Kragg"
p439
sI440
S"C'Thun's Chosen"
p440
s.